	.file	"full.llvm"
	.text
.Ltext_begin:
	.data
	.file	1 "cluster.c"
	.file	2 "getopt.c"
	.file	3 "kmeans.c"
	.file	4 "/usr/include/stdlib.h"
	.file	5 "/usr/include/x86_64-linux-gnu/bits/stdlib-float.h"
	.file	6 "kmeans_clustering.c"
	.text
	.globl	cluster
	.align	16, 0x90
	.type	cluster,@function
cluster:                                # @cluster
	.cfi_startproc
.Lfunc_begin0:
	.loc	1 85 0                  # cluster.c:85:0
# BB#0:
	pushq	%rbp
.Ltmp7:
	.cfi_def_cfa_offset 16
	pushq	%r15
.Ltmp8:
	.cfi_def_cfa_offset 24
	pushq	%r14
.Ltmp9:
	.cfi_def_cfa_offset 32
	pushq	%r13
.Ltmp10:
	.cfi_def_cfa_offset 40
	pushq	%r12
.Ltmp11:
	.cfi_def_cfa_offset 48
	pushq	%rbx
.Ltmp12:
	.cfi_def_cfa_offset 56
	subq	$2264, %rsp             # imm = 0x8D8
.Ltmp13:
	.cfi_def_cfa_offset 2320
.Ltmp14:
	.cfi_offset %rbx, -56
.Ltmp15:
	.cfi_offset %r12, -48
.Ltmp16:
	.cfi_offset %r13, -40
.Ltmp17:
	.cfi_offset %r14, -32
.Ltmp18:
	.cfi_offset %r15, -24
.Ltmp19:
	.cfi_offset %rbp, -16
	movabsq	$24601, %rax            # imm = 0x6019
	movabsq	$64, %r9
	movabsq	$1, %r10
	leaq	.L.str23, %r11
	movabsq	$0, %rbx
	leaq	.L.str24, %r14
	leaq	.L.str21, %r15
	leaq	.L.str22, %r12
	movabsq	$2, %r13
	leaq	malloc, %rbp
	movq	%rax, 2256(%rsp)        # 8-byte Spill
	leaq	.L.str19, %rax
	movq	%rax, 2248(%rsp)        # 8-byte Spill
	leaq	.L.str20, %rax
	movq	%rax, 2240(%rsp)        # 8-byte Spill
	movabsq	$90, %rax
	movq	%rax, 2232(%rsp)        # 8-byte Spill
	leaq	.L.str16, %rax
	movq	%rax, 2224(%rsp)        # 8-byte Spill
	leaq	.L.str17, %rax
	movq	%rax, 2216(%rsp)        # 8-byte Spill
	leaq	.L.str18, %rax
	movq	%rax, 2208(%rsp)        # 8-byte Spill
	movabsq	$49, %rax
	movl	%ecx, 2204(%rsp)        # 4-byte Spill
	movl	$0, %ecx
	movl	%ecx, 2200(%rsp)        # 4-byte Spill
	movl	$1, %ecx
	movq	%rax, 2192(%rsp)        # 8-byte Spill
	movabsq	$19134, %rax            # imm = 0x4ABE
	movq	%rax, 2184(%rsp)        # 8-byte Spill
	leaq	.L.str14, %rax
	movq	%rax, 2176(%rsp)        # 8-byte Spill
	leaq	.L.str15, %rax
	movq	%rax, 2168(%rsp)        # 8-byte Spill
	leaq	.L.str12, %rax
	movq	%rax, 2160(%rsp)        # 8-byte Spill
	leaq	.L.str13, %rax
	movq	%rax, 2152(%rsp)        # 8-byte Spill
	leaq	.L.str10, %rax
	movq	%rax, 2144(%rsp)        # 8-byte Spill
	leaq	.L.str11, %rax
	movq	%rax, 2136(%rsp)        # 8-byte Spill
	leaq	.L.str7, %rax
	movq	%rax, 2128(%rsp)        # 8-byte Spill
	leaq	.L.str8, %rax
	movq	%rax, 2120(%rsp)        # 8-byte Spill
	leaq	.L.str9, %rax
	movq	%rax, 2112(%rsp)        # 8-byte Spill
	movabsq	$20, %rax
	movq	%rax, 2104(%rsp)        # 8-byte Spill
	leaq	.L.str5, %rax
	movq	%rax, 2096(%rsp)        # 8-byte Spill
	leaq	.L.str6, %rax
	movq	%rax, 2088(%rsp)        # 8-byte Spill
	movabsq	$32, %rax
	movq	%rax, 2080(%rsp)        # 8-byte Spill
	leaq	.L.str3, %rax
	movq	%rax, 2072(%rsp)        # 8-byte Spill
	leaq	.L.str4, %rax
	movq	%rax, 2064(%rsp)        # 8-byte Spill
	leaq	.L.str, %rax
	movq	%rax, 2056(%rsp)        # 8-byte Spill
	leaq	.L.str1, %rax
	movq	%rax, 2048(%rsp)        # 8-byte Spill
	leaq	.L.str2, %rax
	movq	%rax, 2040(%rsp)        # 8-byte Spill
	movabsq	$35, %rax
	#DEBUG_VALUE: cluster:numObjects <- EDI
	#DEBUG_VALUE: cluster:numAttributes <- ESI
	#DEBUG_VALUE: cluster:attributes <- RDX
	#DEBUG_VALUE: cluster:num_nclusters <- [RSP+2204]
	#DEBUG_VALUE: cluster:threshold <- XMM0
	#DEBUG_VALUE: cluster:cluster_centres <- R8
	.loc	1 90 0 prologue_end     # cluster.c:90:0
.Ltmp20:
	movq	%rax, 2032(%rsp)        # 8-byte Spill
	movq	2232(%rsp), %rax        # 8-byte Reload
	movl	%edi, 2028(%rsp)        # 4-byte Spill
.Ltmp21:
	#DEBUG_VALUE: cluster:numObjects <- [RSP+2028]
	movq	%rax, %rdi
	movq	2056(%rsp), %rax        # 8-byte Reload
	movl	%esi, 2024(%rsp)        # 4-byte Spill
.Ltmp22:
	#DEBUG_VALUE: cluster:numAttributes <- [RSP+2024]
	movq	%rax, %rsi
	movq	2048(%rsp), %rax        # 8-byte Reload
	movq	%rdx, 2016(%rsp)        # 8-byte Spill
.Ltmp23:
	#DEBUG_VALUE: cluster:attributes <- [RSP+2016]
	movq	%rax, %rdx
	movq	2040(%rsp), %rax        # 8-byte Reload
	movl	%ecx, 2012(%rsp)        # 4-byte Spill
	movq	%rax, %rcx
	movq	2032(%rsp), %rax        # 8-byte Reload
	movq	%r8, 2000(%rsp)         # 8-byte Spill
.Ltmp24:
	#DEBUG_VALUE: cluster:cluster_centres <- [RSP+2000]
	movq	%rax, %r8
	movl	2200(%rsp), %eax        # 4-byte Reload
	movq	%r9, 1992(%rsp)         # 8-byte Spill
	movl	%eax, %r9d
	movl	$1, (%rsp)
	movq	%r13, 1984(%rsp)        # 8-byte Spill
	movq	%r14, 1976(%rsp)        # 8-byte Spill
	vmovss	%xmm0, 1972(%rsp)       # 4-byte Spill
.Ltmp25:
	#DEBUG_VALUE: cluster:threshold <- [RSP+1972]
	movq	%r15, 1960(%rsp)        # 8-byte Spill
	movq	%r12, 1952(%rsp)        # 8-byte Spill
	movq	%rbp, 1944(%rsp)        # 8-byte Spill
	movq	%rbx, 1936(%rsp)        # 8-byte Spill
	movq	%r10, 1928(%rsp)        # 8-byte Spill
	movq	%r11, 1920(%rsp)        # 8-byte Spill
	callq	trace_logger_log0
	movl	2028(%rsp), %eax        # 4-byte Reload
	movl	%eax, %r9d
	movl	%r9d, %edx
	movq	1928(%rsp), %rdi        # 8-byte Reload
	movq	2080(%rsp), %rsi        # 8-byte Reload
	movq	1928(%rsp), %rcx        # 8-byte Reload
	movq	2072(%rsp), %r8         # 8-byte Reload
	movq	1936(%rsp), %r9         # 8-byte Reload
	movq	2064(%rsp), %r10        # 8-byte Reload
	movq	%r10, (%rsp)
	callq	trace_logger_log_int
	movl	2028(%rsp), %eax        # 4-byte Reload
	movslq	%eax, %rcx
	movq	2184(%rsp), %rdi        # 8-byte Reload
	movq	1992(%rsp), %rsi        # 8-byte Reload
	movq	%rcx, %rdx
	movq	1928(%rsp), %r8         # 8-byte Reload
	movq	%rcx, 1912(%rsp)        # 8-byte Spill
	movq	%r8, %rcx
	movq	2096(%rsp), %r8         # 8-byte Reload
	movq	1936(%rsp), %r9         # 8-byte Reload
	movq	2088(%rsp), %r10        # 8-byte Reload
	movq	%r10, (%rsp)
	callq	trace_logger_log_int
	movq	2232(%rsp), %rdi        # 8-byte Reload
	movq	2128(%rsp), %rsi        # 8-byte Reload
	movq	2120(%rsp), %rdx        # 8-byte Reload
	movq	2112(%rsp), %rcx        # 8-byte Reload
	movq	2104(%rsp), %r8         # 8-byte Reload
	movl	2200(%rsp), %r9d        # 4-byte Reload
	movl	$1, (%rsp)
	callq	trace_logger_log0
	movq	1984(%rsp), %rdi        # 8-byte Reload
	movq	1992(%rsp), %rsi        # 8-byte Reload
	movq	1984(%rsp), %rdx        # 8-byte Reload
	movq	1936(%rsp), %rcx        # 8-byte Reload
	movq	2144(%rsp), %r8         # 8-byte Reload
	movq	1936(%rsp), %r9         # 8-byte Reload
	movq	2136(%rsp), %r10        # 8-byte Reload
	movq	%r10, (%rsp)
	callq	trace_logger_log_int
	movq	1928(%rsp), %rdi        # 8-byte Reload
	movq	1992(%rsp), %rsi        # 8-byte Reload
	movq	1912(%rsp), %rdx        # 8-byte Reload
	movq	1928(%rsp), %rcx        # 8-byte Reload
	movq	2160(%rsp), %r8         # 8-byte Reload
	movq	1936(%rsp), %r9         # 8-byte Reload
	movq	2152(%rsp), %r10        # 8-byte Reload
	movq	%r10, (%rsp)
	callq	trace_logger_log_int
	movq	1912(%rsp), %rcx        # 8-byte Reload
	shlq	$2, %rcx
	movq	2184(%rsp), %rdi        # 8-byte Reload
	movq	1992(%rsp), %rsi        # 8-byte Reload
	movq	%rcx, %rdx
	movq	1928(%rsp), %r8         # 8-byte Reload
	movq	%rcx, 1904(%rsp)        # 8-byte Spill
	movq	%r8, %rcx
	movq	2176(%rsp), %r8         # 8-byte Reload
	movq	1936(%rsp), %r9         # 8-byte Reload
	movq	2168(%rsp), %r10        # 8-byte Reload
	movq	%r10, (%rsp)
	callq	trace_logger_log_int
	movq	2232(%rsp), %rdi        # 8-byte Reload
	movq	2224(%rsp), %rsi        # 8-byte Reload
	movq	2216(%rsp), %rdx        # 8-byte Reload
	movq	2208(%rsp), %rcx        # 8-byte Reload
	movq	2192(%rsp), %r8         # 8-byte Reload
	movl	2200(%rsp), %r9d        # 4-byte Reload
	movl	$1, (%rsp)
	callq	trace_logger_log0
	movq	1984(%rsp), %rdi        # 8-byte Reload
	movq	1992(%rsp), %rsi        # 8-byte Reload
	movq	1944(%rsp), %rdx        # 8-byte Reload
	movq	1928(%rsp), %rcx        # 8-byte Reload
	movq	2248(%rsp), %r8         # 8-byte Reload
	movq	1936(%rsp), %r9         # 8-byte Reload
	movq	2240(%rsp), %r10        # 8-byte Reload
	movq	%r10, (%rsp)
	callq	trace_logger_log_int
	movq	1928(%rsp), %rdi        # 8-byte Reload
	movq	1992(%rsp), %rsi        # 8-byte Reload
	movq	1904(%rsp), %rdx        # 8-byte Reload
	movq	1928(%rsp), %rcx        # 8-byte Reload
	movq	1960(%rsp), %r8         # 8-byte Reload
	movq	1936(%rsp), %r9         # 8-byte Reload
	movq	1952(%rsp), %r10        # 8-byte Reload
	movq	%r10, (%rsp)
	callq	trace_logger_log_int
	movq	2256(%rsp), %rdi        # 8-byte Reload
	movq	1992(%rsp), %rsi        # 8-byte Reload
	movq	1904(%rsp), %rdx        # 8-byte Reload
	movq	1928(%rsp), %rcx        # 8-byte Reload
	movq	1920(%rsp), %r8         # 8-byte Reload
	movq	1936(%rsp), %r9         # 8-byte Reload
	movq	1976(%rsp), %r10        # 8-byte Reload
	movq	%r10, (%rsp)
	callq	trace_logger_log_int
	movq	1904(%rsp), %rdi        # 8-byte Reload
	callq	malloc
.Ltmp26:
	movabsq	$24601, %rdi            # imm = 0x6019
	movabsq	$32, %rcx
	movabsq	$7, %rdx
	movabsq	$1, %rsi
	leaq	.L.str41, %r8
	movabsq	$0, %r9
	leaq	.L.str42, %r10
	leaq	.L.str39, %r11
	leaq	.L.str40, %rbx
	movabsq	$2, %r14
	movabsq	$64, %r15
	leaq	srand, %r12
	leaq	.L.str37, %r13
	leaq	.L.str38, %rbp
	movq	%rax, 1896(%rsp)        # 8-byte Spill
	movabsq	$94, %rax
	movq	%rax, 1888(%rsp)        # 8-byte Spill
	leaq	.L.str34, %rax
	movq	%rax, 1880(%rsp)        # 8-byte Spill
	leaq	.L.str35, %rax
	movq	%rax, 1872(%rsp)        # 8-byte Spill
	leaq	.L.str36, %rax
	movq	%rax, 1864(%rsp)        # 8-byte Spill
	movabsq	$49, %rax
	movq	%rsi, 1856(%rsp)        # 8-byte Spill
	movl	$0, %esi
	movl	%esi, 1852(%rsp)        # 4-byte Spill
	movl	$1, %esi
	movq	%rax, 1840(%rsp)        # 8-byte Spill
	movabsq	$19134, %rax            # imm = 0x4ABE
	movq	%rax, 1832(%rsp)        # 8-byte Spill
	leaq	.L.str32, %rax
	movq	%rax, 1824(%rsp)        # 8-byte Spill
	leaq	.L.str33, %rax
	movq	%rax, 1816(%rsp)        # 8-byte Spill
	leaq	.L.str30, %rax
	movq	%rax, 1808(%rsp)        # 8-byte Spill
	leaq	.L.str31, %rax
	movq	%rax, 1800(%rsp)        # 8-byte Spill
	movabsq	$90, %rax
	movq	%rax, 1792(%rsp)        # 8-byte Spill
	leaq	.L.str27, %rax
	movq	%rax, 1784(%rsp)        # 8-byte Spill
	leaq	.L.str28, %rax
	movq	%rax, 1776(%rsp)        # 8-byte Spill
	leaq	.L.str29, %rax
	movq	%rax, 1768(%rsp)        # 8-byte Spill
	movabsq	$44, %rax
	movq	%rax, 1760(%rsp)        # 8-byte Spill
	leaq	.L.str25, %rax
	movq	%rax, 1752(%rsp)        # 8-byte Spill
	leaq	.L.str26, %rax
	movq	%rax, 1744(%rsp)        # 8-byte Spill
	movq	1832(%rsp), %rax        # 8-byte Reload
	movq	%rdi, 1736(%rsp)        # 8-byte Spill
	movq	%rax, %rdi
	movl	%esi, 1732(%rsp)        # 4-byte Spill
	movq	%r15, %rsi
	movq	1896(%rsp), %rax        # 8-byte Reload
	movq	%rdx, 1720(%rsp)        # 8-byte Spill
	movq	%rax, %rdx
	movq	1856(%rsp), %rax        # 8-byte Reload
	movq	%rcx, 1712(%rsp)        # 8-byte Spill
	movq	%rax, %rcx
	movq	1752(%rsp), %rax        # 8-byte Reload
	movq	%r8, 1704(%rsp)         # 8-byte Spill
	movq	%rax, %r8
	movq	%r9, 1696(%rsp)         # 8-byte Spill
	movq	1744(%rsp), %rax        # 8-byte Reload
	movq	%rax, (%rsp)
	movq	%rbp, 1688(%rsp)        # 8-byte Spill
	movq	%r15, 1680(%rsp)        # 8-byte Spill
	movq	%r12, 1672(%rsp)        # 8-byte Spill
	movq	%r13, 1664(%rsp)        # 8-byte Spill
	movq	%r14, 1656(%rsp)        # 8-byte Spill
	movq	%rbx, 1648(%rsp)        # 8-byte Spill
	movq	%r10, 1640(%rsp)        # 8-byte Spill
	movq	%r11, 1632(%rsp)        # 8-byte Spill
	callq	trace_logger_log_int
	movq	1792(%rsp), %rdi        # 8-byte Reload
	movq	1784(%rsp), %rsi        # 8-byte Reload
	movq	1776(%rsp), %rdx        # 8-byte Reload
	movq	1768(%rsp), %rcx        # 8-byte Reload
	movq	1760(%rsp), %r8         # 8-byte Reload
	movl	1852(%rsp), %r9d        # 4-byte Reload
	movl	$1, (%rsp)
	callq	trace_logger_log0
	movq	1856(%rsp), %rdi        # 8-byte Reload
	movq	1680(%rsp), %rsi        # 8-byte Reload
	movq	1896(%rsp), %rdx        # 8-byte Reload
	movq	1856(%rsp), %rcx        # 8-byte Reload
	movq	1808(%rsp), %r8         # 8-byte Reload
	movq	1696(%rsp), %r9         # 8-byte Reload
	movq	1800(%rsp), %rax        # 8-byte Reload
	movq	%rax, (%rsp)
	callq	trace_logger_log_int
	movq	1896(%rsp), %rax        # 8-byte Reload
	movq	1832(%rsp), %rdi        # 8-byte Reload
	movq	1680(%rsp), %rsi        # 8-byte Reload
	movq	%rax, %rdx
	movq	1856(%rsp), %rcx        # 8-byte Reload
	movq	1824(%rsp), %r8         # 8-byte Reload
	movq	1696(%rsp), %r9         # 8-byte Reload
	movq	1816(%rsp), %r10        # 8-byte Reload
	movq	%r10, (%rsp)
	movq	%rax, 1624(%rsp)        # 8-byte Spill
	callq	trace_logger_log_int
.Ltmp27:
	#DEBUG_VALUE: cluster:membership <- [RSP+1624]
	#DEBUG_VALUE: cluster:nclusters <- [RSP+2204]
	.loc	1 94 0                  # cluster.c:94:0
	movq	1888(%rsp), %rdi        # 8-byte Reload
	movq	1880(%rsp), %rsi        # 8-byte Reload
	movq	1872(%rsp), %rdx        # 8-byte Reload
	movq	1864(%rsp), %rcx        # 8-byte Reload
	movq	1840(%rsp), %r8         # 8-byte Reload
	movl	1852(%rsp), %r9d        # 4-byte Reload
	movl	$1, (%rsp)
	callq	trace_logger_log0
	movq	1656(%rsp), %rdi        # 8-byte Reload
	movq	1680(%rsp), %rsi        # 8-byte Reload
	movq	1672(%rsp), %rdx        # 8-byte Reload
	movq	1856(%rsp), %rcx        # 8-byte Reload
	movq	1664(%rsp), %r8         # 8-byte Reload
	movq	1696(%rsp), %r9         # 8-byte Reload
	movq	1688(%rsp), %rax        # 8-byte Reload
	movq	%rax, (%rsp)
	callq	trace_logger_log_int
	movq	1856(%rsp), %rdi        # 8-byte Reload
	movq	1712(%rsp), %rsi        # 8-byte Reload
	movq	1720(%rsp), %rdx        # 8-byte Reload
	movq	1696(%rsp), %rcx        # 8-byte Reload
	movq	1632(%rsp), %r8         # 8-byte Reload
	movq	1696(%rsp), %r9         # 8-byte Reload
	movq	1648(%rsp), %rax        # 8-byte Reload
	movq	%rax, (%rsp)
	callq	trace_logger_log_int
	movq	1736(%rsp), %rdi        # 8-byte Reload
	movq	1712(%rsp), %rsi        # 8-byte Reload
	movq	1720(%rsp), %rdx        # 8-byte Reload
	movq	1856(%rsp), %rcx        # 8-byte Reload
	movq	1704(%rsp), %r8         # 8-byte Reload
	movq	1696(%rsp), %r9         # 8-byte Reload
	movq	1640(%rsp), %rax        # 8-byte Reload
	movq	%rax, (%rsp)
	callq	trace_logger_log_int
	movl	$7, %edi
	callq	srand
.Ltmp28:
	movabsq	$24601, %rax            # imm = 0x6019
	movabsq	$64, %rcx
	movabsq	$1, %rdx
	leaq	.L.str70, %r8
	movabsq	$0, %rsi
	leaq	.L.str71, %r9
	movabsq	$6, %rdi
	leaq	.L.str68, %r10
	leaq	.L.str69, %r11
	movabsq	$32, %rbx
	leaq	.L.str66, %r14
	leaq	.L.str67, %r15
	movabsq	$5, %r12
	leaq	.L.str64, %r13
	leaq	.L.str65, %rbp
	movq	%rax, 1616(%rsp)        # 8-byte Spill
	leaq	.L.str62, %rax
	movq	%rax, 1608(%rsp)        # 8-byte Spill
	leaq	.L.str63, %rax
	movq	%rax, 1600(%rsp)        # 8-byte Spill
	movabsq	$4, %rax
	movq	%rax, 1592(%rsp)        # 8-byte Spill
	leaq	.L.str60, %rax
	movq	%rax, 1584(%rsp)        # 8-byte Spill
	leaq	.L.str61, %rax
	movq	%rax, 1576(%rsp)        # 8-byte Spill
	leaq	.L.str58, %rax
	movq	%rax, 1568(%rsp)        # 8-byte Spill
	leaq	.L.str59, %rax
	movq	%rax, 1560(%rsp)        # 8-byte Spill
	movabsq	$3, %rax
	movq	%rax, 1552(%rsp)        # 8-byte Spill
	leaq	.L.str56, %rax
	movq	%rax, 1544(%rsp)        # 8-byte Spill
	leaq	.L.str57, %rax
	movq	%rax, 1536(%rsp)        # 8-byte Spill
	leaq	.L.str54, %rax
	movq	%rax, 1528(%rsp)        # 8-byte Spill
	leaq	.L.str55, %rax
	movq	%rax, 1520(%rsp)        # 8-byte Spill
	movabsq	$2, %rax
	movq	%rax, 1512(%rsp)        # 8-byte Spill
	leaq	.L.str52, %rax
	movq	%rax, 1504(%rsp)        # 8-byte Spill
	leaq	.L.str53, %rax
	movq	%rax, 1496(%rsp)        # 8-byte Spill
	leaq	.L.str50, %rax
	movq	%rax, 1488(%rsp)        # 8-byte Spill
	leaq	.L.str51, %rax
	movq	%rax, 1480(%rsp)        # 8-byte Spill
	leaq	.L.str48, %rax
	movq	%rax, 1472(%rsp)        # 8-byte Spill
	leaq	.L.str49, %rax
	movq	%rax, 1464(%rsp)        # 8-byte Spill
	movabsq	$7, %rax
	movq	%rax, 1456(%rsp)        # 8-byte Spill
	leaq	kmeans_clustering, %rax
	movq	%rax, 1448(%rsp)        # 8-byte Spill
	leaq	.L.str46, %rax
	movq	%rax, 1440(%rsp)        # 8-byte Spill
	leaq	.L.str47, %rax
	movq	%rax, 1432(%rsp)        # 8-byte Spill
	movabsq	$96, %rax
	movq	%rax, 1424(%rsp)        # 8-byte Spill
	leaq	.L.str43, %rax
	movq	%rax, 1416(%rsp)        # 8-byte Spill
	leaq	.L.str44, %rax
	movq	%rax, 1408(%rsp)        # 8-byte Spill
	leaq	.L.str45, %rax
	movq	%rax, 1400(%rsp)        # 8-byte Spill
	movabsq	$49, %rax
	movq	%rsi, 1392(%rsp)        # 8-byte Spill
	movl	$0, %esi
	movl	%esi, 1388(%rsp)        # 4-byte Spill
	movl	$1, %esi
	.loc	1 96 0                  # cluster.c:96:0
	movq	%rax, 1376(%rsp)        # 8-byte Spill
	movq	1424(%rsp), %rax        # 8-byte Reload
	movq	%rdi, 1368(%rsp)        # 8-byte Spill
	movq	%rax, %rdi
	movq	1416(%rsp), %rax        # 8-byte Reload
	movl	%esi, 1364(%rsp)        # 4-byte Spill
	movq	%rax, %rsi
	movq	1408(%rsp), %rax        # 8-byte Reload
	movq	%rdx, 1352(%rsp)        # 8-byte Spill
	movq	%rax, %rdx
	movq	1400(%rsp), %rax        # 8-byte Reload
	movq	%rcx, 1344(%rsp)        # 8-byte Spill
	movq	%rax, %rcx
	movq	1376(%rsp), %rax        # 8-byte Reload
	movq	%r8, 1336(%rsp)         # 8-byte Spill
	movq	%rax, %r8
	movl	1388(%rsp), %eax        # 4-byte Reload
	movq	%r9, 1328(%rsp)         # 8-byte Spill
	movl	%eax, %r9d
	movl	$1, (%rsp)
	movq	%r15, 1320(%rsp)        # 8-byte Spill
	movq	%r12, 1312(%rsp)        # 8-byte Spill
	movq	%r14, 1304(%rsp)        # 8-byte Spill
	movq	%r13, 1296(%rsp)        # 8-byte Spill
	movq	%rbx, 1288(%rsp)        # 8-byte Spill
	movq	%rbp, 1280(%rsp)        # 8-byte Spill
	movq	%r10, 1272(%rsp)        # 8-byte Spill
	movq	%r11, 1264(%rsp)        # 8-byte Spill
	callq	trace_logger_log0
	movq	1456(%rsp), %rdi        # 8-byte Reload
	movq	1344(%rsp), %rsi        # 8-byte Reload
	movq	1448(%rsp), %rdx        # 8-byte Reload
	movq	1352(%rsp), %rcx        # 8-byte Reload
	movq	1440(%rsp), %r8         # 8-byte Reload
	movq	1392(%rsp), %r9         # 8-byte Reload
	movq	1432(%rsp), %r10        # 8-byte Reload
	movq	%r10, (%rsp)
	callq	trace_logger_log_int
	movq	1352(%rsp), %rdi        # 8-byte Reload
	movq	1344(%rsp), %rsi        # 8-byte Reload
	movq	2016(%rsp), %rdx        # 8-byte Reload
	movq	1352(%rsp), %rcx        # 8-byte Reload
	movq	1472(%rsp), %r8         # 8-byte Reload
	movq	1392(%rsp), %r9         # 8-byte Reload
	movq	1464(%rsp), %r10        # 8-byte Reload
	movq	%r10, (%rsp)
	callq	trace_logger_log_int
	movq	1616(%rsp), %rdi        # 8-byte Reload
	movq	1344(%rsp), %rsi        # 8-byte Reload
	movq	2016(%rsp), %rdx        # 8-byte Reload
	movq	1352(%rsp), %rcx        # 8-byte Reload
	movq	1488(%rsp), %r8         # 8-byte Reload
	movq	1392(%rsp), %r9         # 8-byte Reload
	movq	1480(%rsp), %r10        # 8-byte Reload
	movq	%r10, (%rsp)
	callq	trace_logger_log_int
	movl	2024(%rsp), %eax        # 4-byte Reload
	movl	%eax, %eax
	movl	%eax, %edx
	movq	1512(%rsp), %rdi        # 8-byte Reload
	movq	1288(%rsp), %rsi        # 8-byte Reload
	movq	1352(%rsp), %rcx        # 8-byte Reload
	movq	1504(%rsp), %r8         # 8-byte Reload
	movq	1392(%rsp), %r9         # 8-byte Reload
	movq	1496(%rsp), %r10        # 8-byte Reload
	movq	%r10, (%rsp)
	callq	trace_logger_log_int
	movl	2024(%rsp), %eax        # 4-byte Reload
	movl	%eax, %eax
	movl	%eax, %edx
	movq	1616(%rsp), %rdi        # 8-byte Reload
	movq	1288(%rsp), %rsi        # 8-byte Reload
	movq	1352(%rsp), %rcx        # 8-byte Reload
	movq	1528(%rsp), %r8         # 8-byte Reload
	movq	1392(%rsp), %r9         # 8-byte Reload
	movq	1520(%rsp), %r10        # 8-byte Reload
	movq	%r10, (%rsp)
	callq	trace_logger_log_int
	movl	2028(%rsp), %eax        # 4-byte Reload
	movl	%eax, %eax
	movl	%eax, %edx
	movq	1552(%rsp), %rdi        # 8-byte Reload
	movq	1288(%rsp), %rsi        # 8-byte Reload
	movq	1352(%rsp), %rcx        # 8-byte Reload
	movq	1544(%rsp), %r8         # 8-byte Reload
	movq	1392(%rsp), %r9         # 8-byte Reload
	movq	1536(%rsp), %r10        # 8-byte Reload
	movq	%r10, (%rsp)
	callq	trace_logger_log_int
	movl	2028(%rsp), %eax        # 4-byte Reload
	movl	%eax, %eax
	movl	%eax, %edx
	movq	1616(%rsp), %rdi        # 8-byte Reload
	movq	1288(%rsp), %rsi        # 8-byte Reload
	movq	1352(%rsp), %rcx        # 8-byte Reload
	movq	1568(%rsp), %r8         # 8-byte Reload
	movq	1392(%rsp), %r9         # 8-byte Reload
	movq	1560(%rsp), %r10        # 8-byte Reload
	movq	%r10, (%rsp)
	callq	trace_logger_log_int
	movl	2204(%rsp), %eax        # 4-byte Reload
	movl	%eax, %eax
	movl	%eax, %edx
	movq	1592(%rsp), %rdi        # 8-byte Reload
	movq	1288(%rsp), %rsi        # 8-byte Reload
	movq	1352(%rsp), %rcx        # 8-byte Reload
	movq	1584(%rsp), %r8         # 8-byte Reload
	movq	1392(%rsp), %r9         # 8-byte Reload
	movq	1576(%rsp), %r10        # 8-byte Reload
	movq	%r10, (%rsp)
	callq	trace_logger_log_int
	movl	2204(%rsp), %eax        # 4-byte Reload
	movl	%eax, %eax
	movl	%eax, %edx
	movq	1616(%rsp), %rdi        # 8-byte Reload
	movq	1288(%rsp), %rsi        # 8-byte Reload
	movq	1352(%rsp), %rcx        # 8-byte Reload
	movq	1608(%rsp), %r8         # 8-byte Reload
	movq	1392(%rsp), %r9         # 8-byte Reload
	movq	1600(%rsp), %r10        # 8-byte Reload
	movq	%r10, (%rsp)
	callq	trace_logger_log_int
	vmovss	1972(%rsp), %xmm0       # 4-byte Reload
	cvtss2sd	%xmm0, %xmm0
	movq	1312(%rsp), %rdi        # 8-byte Reload
	movq	1288(%rsp), %rsi        # 8-byte Reload
	movq	1352(%rsp), %rdx        # 8-byte Reload
	movq	1296(%rsp), %rcx        # 8-byte Reload
	movq	1392(%rsp), %r8         # 8-byte Reload
	movq	1280(%rsp), %r9         # 8-byte Reload
	callq	trace_logger_log_double
	vmovss	1972(%rsp), %xmm0       # 4-byte Reload
	cvtss2sd	%xmm0, %xmm0
	movq	1616(%rsp), %rdi        # 8-byte Reload
	movq	1288(%rsp), %rsi        # 8-byte Reload
	movq	1352(%rsp), %rdx        # 8-byte Reload
	movq	1304(%rsp), %rcx        # 8-byte Reload
	movq	1392(%rsp), %r8         # 8-byte Reload
	movq	1320(%rsp), %r9         # 8-byte Reload
	callq	trace_logger_log_double
	movq	1368(%rsp), %rdi        # 8-byte Reload
	movq	1344(%rsp), %rsi        # 8-byte Reload
	movq	1624(%rsp), %rdx        # 8-byte Reload
	movq	1352(%rsp), %rcx        # 8-byte Reload
	movq	1272(%rsp), %r8         # 8-byte Reload
	movq	1392(%rsp), %r9         # 8-byte Reload
	movq	1264(%rsp), %r10        # 8-byte Reload
	movq	%r10, (%rsp)
	callq	trace_logger_log_int
	movq	1616(%rsp), %rdi        # 8-byte Reload
	movq	1344(%rsp), %rsi        # 8-byte Reload
	movq	1624(%rsp), %rdx        # 8-byte Reload
	movq	1352(%rsp), %rcx        # 8-byte Reload
	movq	1336(%rsp), %r8         # 8-byte Reload
	movq	1392(%rsp), %r9         # 8-byte Reload
	movq	1328(%rsp), %r10        # 8-byte Reload
	movq	%r10, (%rsp)
	callq	trace_logger_log_int
	movq	2016(%rsp), %rdi        # 8-byte Reload
	movl	2024(%rsp), %esi        # 4-byte Reload
	movl	2028(%rsp), %edx        # 4-byte Reload
	movl	2204(%rsp), %ecx        # 4-byte Reload
	vmovss	1972(%rsp), %xmm0       # 4-byte Reload
	movq	1624(%rsp), %r8         # 8-byte Reload
	callq	kmeans_clustering
	movabsq	$1, %rdi
	leaq	.L.str97, %r8
	movabsq	$0, %r9
	leaq	.L.str98, %r10
	movabsq	$2, %r11
	leaq	.L.str95, %rbx
	leaq	.L.str96, %r14
	movabsq	$3, %r15
	leaq	.L.str93, %r12
	leaq	.L.str94, %r13
	movabsq	$103, %rbp
	leaq	.L.str90, %rsi
	leaq	.L.str91, %rdx
	leaq	.L.str92, %rcx
	movq	%rsi, 1256(%rsp)        # 8-byte Spill
	movl	$0, %esi
	movl	%esi, 1252(%rsp)        # 4-byte Spill
	movl	$1, %esi
	movq	%rax, 1240(%rsp)        # 8-byte Spill
	movabsq	$19134, %rax            # imm = 0x4ABE
	movq	%rax, 1232(%rsp)        # 8-byte Spill
	leaq	.L.str88, %rax
	movq	%rax, 1224(%rsp)        # 8-byte Spill
	leaq	.L.str89, %rax
	movq	%rax, 1216(%rsp)        # 8-byte Spill
	movabsq	$64, %rax
	movq	%rax, 1208(%rsp)        # 8-byte Spill
	leaq	.L.str86, %rax
	movq	%rax, 1200(%rsp)        # 8-byte Spill
	leaq	.L.str87, %rax
	movq	%rax, 1192(%rsp)        # 8-byte Spill
	leaq	.L.str84, %rax
	movq	%rax, 1184(%rsp)        # 8-byte Spill
	leaq	.L.str85, %rax
	movq	%rax, 1176(%rsp)        # 8-byte Spill
	leaq	.L.str81, %rax
	movq	%rax, 1168(%rsp)        # 8-byte Spill
	leaq	.L.str82, %rax
	movq	%rax, 1160(%rsp)        # 8-byte Spill
	leaq	.L.str83, %rax
	movq	%rax, 1152(%rsp)        # 8-byte Spill
	movabsq	$46, %rax
	movq	%rax, 1144(%rsp)        # 8-byte Spill
	leaq	.L.str79, %rax
	movq	%rax, 1136(%rsp)        # 8-byte Spill
	leaq	.L.str80, %rax
	movq	%rax, 1128(%rsp)        # 8-byte Spill
	leaq	.L.str77, %rax
	movq	%rax, 1120(%rsp)        # 8-byte Spill
	leaq	.L.str78, %rax
	movq	%rax, 1112(%rsp)        # 8-byte Spill
	leaq	.L.str74, %rax
	movq	%rax, 1104(%rsp)        # 8-byte Spill
	leaq	.L.str75, %rax
	movq	%rax, 1096(%rsp)        # 8-byte Spill
	leaq	.L.str76, %rax
	movq	%rax, 1088(%rsp)        # 8-byte Spill
	movabsq	$27, %rax
	movq	%rax, 1080(%rsp)        # 8-byte Spill
	leaq	.L.str72, %rax
	movq	%rax, 1072(%rsp)        # 8-byte Spill
	leaq	.L.str73, %rax
	movq	%rax, 1064(%rsp)        # 8-byte Spill
	movq	1232(%rsp), %rax        # 8-byte Reload
	movq	%rdi, 1056(%rsp)        # 8-byte Spill
	movq	%rax, %rdi
	movq	1208(%rsp), %rax        # 8-byte Reload
	movl	%esi, 1052(%rsp)        # 4-byte Spill
	movq	%rax, %rsi
	movq	1240(%rsp), %rax        # 8-byte Reload
	movq	%rdx, 1040(%rsp)        # 8-byte Spill
	movq	%rax, %rdx
	movq	1056(%rsp), %rax        # 8-byte Reload
	movq	%rcx, 1032(%rsp)        # 8-byte Spill
	movq	%rax, %rcx
	movq	1072(%rsp), %rax        # 8-byte Reload
	movq	%r8, 1024(%rsp)         # 8-byte Spill
	movq	%rax, %r8
	movq	%r9, 1016(%rsp)         # 8-byte Spill
	movq	1064(%rsp), %rax        # 8-byte Reload
	movq	%rax, (%rsp)
	movq	%rbp, 1008(%rsp)        # 8-byte Spill
	movq	%r13, 1000(%rsp)        # 8-byte Spill
	movq	%r12, 992(%rsp)         # 8-byte Spill
	movq	%r10, 984(%rsp)         # 8-byte Spill
	movq	%r11, 976(%rsp)         # 8-byte Spill
	movq	%rbx, 968(%rsp)         # 8-byte Spill
	movq	%r14, 960(%rsp)         # 8-byte Spill
	movq	%r15, 952(%rsp)         # 8-byte Spill
	callq	trace_logger_log_int
.Ltmp29:
	#DEBUG_VALUE: cluster:tmp_cluster_centres <- [RSP+1240]
	.loc	1 103 0                 # cluster.c:103:0
	movq	1008(%rsp), %rdi        # 8-byte Reload
	movq	1104(%rsp), %rsi        # 8-byte Reload
	movq	1096(%rsp), %rdx        # 8-byte Reload
	movq	1088(%rsp), %rcx        # 8-byte Reload
	movq	1080(%rsp), %r8         # 8-byte Reload
	movl	1252(%rsp), %r9d        # 4-byte Reload
	movl	$1, (%rsp)
	callq	trace_logger_log0
	movq	1056(%rsp), %rdi        # 8-byte Reload
	movq	1208(%rsp), %rsi        # 8-byte Reload
	movq	2000(%rsp), %rdx        # 8-byte Reload
	movq	1056(%rsp), %rcx        # 8-byte Reload
	movq	1120(%rsp), %r8         # 8-byte Reload
	movq	1016(%rsp), %r9         # 8-byte Reload
	movq	1112(%rsp), %rax        # 8-byte Reload
	movq	%rax, (%rsp)
	callq	trace_logger_log_int
	movq	2000(%rsp), %rax        # 8-byte Reload
	movq	(%rax), %rcx
	movq	1232(%rsp), %rdi        # 8-byte Reload
	movq	1208(%rsp), %rsi        # 8-byte Reload
	movq	%rcx, %rdx
	movq	1056(%rsp), %r8         # 8-byte Reload
	movq	%rcx, 944(%rsp)         # 8-byte Spill
	movq	%r8, %rcx
	movq	1136(%rsp), %r8         # 8-byte Reload
	movq	1016(%rsp), %r9         # 8-byte Reload
	movq	1128(%rsp), %r10        # 8-byte Reload
	movq	%r10, (%rsp)
	callq	trace_logger_log_int
	movq	1008(%rsp), %rdi        # 8-byte Reload
	movq	1168(%rsp), %rsi        # 8-byte Reload
	movq	1160(%rsp), %rdx        # 8-byte Reload
	movq	1152(%rsp), %rcx        # 8-byte Reload
	movq	1144(%rsp), %r8         # 8-byte Reload
	movl	1252(%rsp), %r9d        # 4-byte Reload
	movl	$1, (%rsp)
	callq	trace_logger_log0
	movq	976(%rsp), %rdi         # 8-byte Reload
	movq	1208(%rsp), %rsi        # 8-byte Reload
	movq	1016(%rsp), %rdx        # 8-byte Reload
	movq	1016(%rsp), %rcx        # 8-byte Reload
	movq	1184(%rsp), %r8         # 8-byte Reload
	movq	1016(%rsp), %r9         # 8-byte Reload
	movq	1176(%rsp), %rax        # 8-byte Reload
	movq	%rax, (%rsp)
	callq	trace_logger_log_int
	movq	1056(%rsp), %rdi        # 8-byte Reload
	movq	1208(%rsp), %rsi        # 8-byte Reload
	movq	944(%rsp), %rdx         # 8-byte Reload
	movq	1056(%rsp), %rcx        # 8-byte Reload
	movq	1200(%rsp), %r8         # 8-byte Reload
	movq	1016(%rsp), %r9         # 8-byte Reload
	movq	1192(%rsp), %rax        # 8-byte Reload
	movq	%rax, (%rsp)
	callq	trace_logger_log_int
	movq	944(%rsp), %rax         # 8-byte Reload
	cmpq	$0, %rax
	sete	%al
	movb	%al, %cl
	andb	$1, %cl
	movzbl	%cl, %ecx
	movl	%ecx, %edx
	movq	1232(%rsp), %rdi        # 8-byte Reload
	movq	1056(%rsp), %rsi        # 8-byte Reload
	movq	1056(%rsp), %rcx        # 8-byte Reload
	movq	1224(%rsp), %r8         # 8-byte Reload
	movq	1016(%rsp), %r9         # 8-byte Reload
	movq	1216(%rsp), %r10        # 8-byte Reload
	movq	%r10, (%rsp)
	movb	%al, 943(%rsp)          # 1-byte Spill
	callq	trace_logger_log_int
	movq	1008(%rsp), %rdi        # 8-byte Reload
	movq	1256(%rsp), %rsi        # 8-byte Reload
	movq	1040(%rsp), %rdx        # 8-byte Reload
	movq	1032(%rsp), %rcx        # 8-byte Reload
	movq	976(%rsp), %r8          # 8-byte Reload
	movl	1252(%rsp), %r9d        # 4-byte Reload
	movl	$1, (%rsp)
	callq	trace_logger_log0
	movq	952(%rsp), %rdi         # 8-byte Reload
	movq	1016(%rsp), %rsi        # 8-byte Reload
	movq	1016(%rsp), %rdx        # 8-byte Reload
	movq	1056(%rsp), %rcx        # 8-byte Reload
	movq	992(%rsp), %r8          # 8-byte Reload
	movq	1016(%rsp), %r9         # 8-byte Reload
	movq	1000(%rsp), %r10        # 8-byte Reload
	movq	%r10, (%rsp)
	callq	trace_logger_log_int
	movq	976(%rsp), %rdi         # 8-byte Reload
	movq	1016(%rsp), %rsi        # 8-byte Reload
	movq	1016(%rsp), %rdx        # 8-byte Reload
	movq	1056(%rsp), %rcx        # 8-byte Reload
	movq	968(%rsp), %r8          # 8-byte Reload
	movq	1016(%rsp), %r9         # 8-byte Reload
	movq	960(%rsp), %r10         # 8-byte Reload
	movq	%r10, (%rsp)
	callq	trace_logger_log_int
	movb	943(%rsp), %al          # 1-byte Reload
	andb	$1, %al
	movzbl	%al, %eax
	movl	%eax, %edx
	movq	1056(%rsp), %rdi        # 8-byte Reload
	movq	1056(%rsp), %rsi        # 8-byte Reload
	movq	1056(%rsp), %rcx        # 8-byte Reload
	movq	1024(%rsp), %r8         # 8-byte Reload
	movq	1016(%rsp), %r9         # 8-byte Reload
	movq	984(%rsp), %r10         # 8-byte Reload
	movq	%r10, (%rsp)
	callq	trace_logger_log_int
	movb	943(%rsp), %al          # 1-byte Reload
	testb	$1, %al
	jne	.LBB0_2
.Ltmp30:
# BB#1:
	movabsq	$24601, %rdi            # imm = 0x6019
	movabsq	$64, %rax
	movabsq	$1, %rcx
	leaq	.L.str120, %r8
	movabsq	$0, %rdx
	leaq	.L.str121, %rsi
	leaq	.L.str118, %r9
	leaq	.L.str119, %r10
	movabsq	$2, %r11
	leaq	free, %rbx
	leaq	.L.str116, %r14
	leaq	.L.str117, %r15
	movabsq	$104, %r12
	leaq	.L.str113, %r13
	leaq	.L.str114, %rbp
	movq	%rax, 928(%rsp)         # 8-byte Spill
	leaq	.L.str115, %rax
	movq	%rax, 920(%rsp)         # 8-byte Spill
	movabsq	$49, %rax
	movq	%rsi, 912(%rsp)         # 8-byte Spill
	movl	$0, %esi
	movl	%esi, 908(%rsp)         # 4-byte Spill
	movl	$1, %esi
	movq	%rax, 896(%rsp)         # 8-byte Spill
	movabsq	$19134, %rax            # imm = 0x4ABE
	movq	%rax, 888(%rsp)         # 8-byte Spill
	leaq	.L.str111, %rax
	movq	%rax, 880(%rsp)         # 8-byte Spill
	leaq	.L.str112, %rax
	movq	%rax, 872(%rsp)         # 8-byte Spill
	leaq	.L.str109, %rax
	movq	%rax, 864(%rsp)         # 8-byte Spill
	leaq	.L.str110, %rax
	movq	%rax, 856(%rsp)         # 8-byte Spill
	leaq	.L.str106, %rax
	movq	%rax, 848(%rsp)         # 8-byte Spill
	leaq	.L.str107, %rax
	movq	%rax, 840(%rsp)         # 8-byte Spill
	leaq	.L.str108, %rax
	movq	%rax, 832(%rsp)         # 8-byte Spill
	movabsq	$44, %rax
	movq	%rax, 824(%rsp)         # 8-byte Spill
	leaq	.L.str104, %rax
	movq	%rax, 816(%rsp)         # 8-byte Spill
	leaq	.L.str105, %rax
	movq	%rax, 808(%rsp)         # 8-byte Spill
	leaq	.L.str102, %rax
	movq	%rax, 800(%rsp)         # 8-byte Spill
	leaq	.L.str103, %rax
	movq	%rax, 792(%rsp)         # 8-byte Spill
	leaq	.L.str99, %rax
	movq	%rax, 784(%rsp)         # 8-byte Spill
	leaq	.L.str100, %rax
	movq	%rax, 776(%rsp)         # 8-byte Spill
	leaq	.L.str101, %rax
	movq	%rax, 768(%rsp)         # 8-byte Spill
	movabsq	$27, %rax
	.loc	1 104 0                 # cluster.c:104:0
.Ltmp31:
	movq	%rdi, 760(%rsp)         # 8-byte Spill
	movq	%r12, %rdi
	movq	%rax, 752(%rsp)         # 8-byte Spill
	movq	784(%rsp), %rax         # 8-byte Reload
	movl	%esi, 748(%rsp)         # 4-byte Spill
	movq	%rax, %rsi
	movq	776(%rsp), %rax         # 8-byte Reload
	movq	%rdx, 736(%rsp)         # 8-byte Spill
	movq	%rax, %rdx
	movq	768(%rsp), %rax         # 8-byte Reload
	movq	%rcx, 728(%rsp)         # 8-byte Spill
	movq	%rax, %rcx
	movq	752(%rsp), %rax         # 8-byte Reload
	movq	%r8, 720(%rsp)          # 8-byte Spill
	movq	%rax, %r8
	movl	908(%rsp), %eax         # 4-byte Reload
	movq	%r9, 712(%rsp)          # 8-byte Spill
	movl	%eax, %r9d
	movl	$1, (%rsp)
	movq	%rbp, 704(%rsp)         # 8-byte Spill
	movq	%r15, 696(%rsp)         # 8-byte Spill
	movq	%r14, 688(%rsp)         # 8-byte Spill
	movq	%r12, 680(%rsp)         # 8-byte Spill
	movq	%r13, 672(%rsp)         # 8-byte Spill
	movq	%rbx, 664(%rsp)         # 8-byte Spill
	movq	%r10, 656(%rsp)         # 8-byte Spill
	movq	%r11, 648(%rsp)         # 8-byte Spill
	callq	trace_logger_log0
	movq	728(%rsp), %rdi         # 8-byte Reload
	movq	928(%rsp), %rsi         # 8-byte Reload
	movq	944(%rsp), %rdx         # 8-byte Reload
	movq	728(%rsp), %rcx         # 8-byte Reload
	movq	800(%rsp), %r8          # 8-byte Reload
	movq	736(%rsp), %r9          # 8-byte Reload
	movq	792(%rsp), %r10         # 8-byte Reload
	movq	%r10, (%rsp)
	callq	trace_logger_log_int
	movq	944(%rsp), %rcx         # 8-byte Reload
	movq	(%rcx), %rdx
	movq	888(%rsp), %rdi         # 8-byte Reload
	movq	928(%rsp), %rsi         # 8-byte Reload
	movq	%rdx, 640(%rsp)         # 8-byte Spill
	movq	728(%rsp), %rcx         # 8-byte Reload
	movq	816(%rsp), %r8          # 8-byte Reload
	movq	736(%rsp), %r9          # 8-byte Reload
	movq	808(%rsp), %r10         # 8-byte Reload
	movq	%r10, (%rsp)
	callq	trace_logger_log_int
	movq	680(%rsp), %rdi         # 8-byte Reload
	movq	848(%rsp), %rsi         # 8-byte Reload
	movq	840(%rsp), %rdx         # 8-byte Reload
	movq	832(%rsp), %rcx         # 8-byte Reload
	movq	824(%rsp), %r8          # 8-byte Reload
	movl	908(%rsp), %r9d         # 4-byte Reload
	movl	$1, (%rsp)
	callq	trace_logger_log0
	movq	728(%rsp), %rdi         # 8-byte Reload
	movq	928(%rsp), %rsi         # 8-byte Reload
	movq	640(%rsp), %rdx         # 8-byte Reload
	movq	728(%rsp), %rcx         # 8-byte Reload
	movq	864(%rsp), %r8          # 8-byte Reload
	movq	736(%rsp), %r9          # 8-byte Reload
	movq	856(%rsp), %r10         # 8-byte Reload
	movq	%r10, (%rsp)
	callq	trace_logger_log_int
	movq	640(%rsp), %rcx         # 8-byte Reload
	movq	888(%rsp), %rdi         # 8-byte Reload
	movq	928(%rsp), %rsi         # 8-byte Reload
	movq	%rcx, %rdx
	movq	728(%rsp), %r8          # 8-byte Reload
	movq	%rcx, 632(%rsp)         # 8-byte Spill
	movq	%r8, %rcx
	movq	880(%rsp), %r8          # 8-byte Reload
	movq	736(%rsp), %r9          # 8-byte Reload
	movq	872(%rsp), %r10         # 8-byte Reload
	movq	%r10, (%rsp)
	callq	trace_logger_log_int
	movq	680(%rsp), %rdi         # 8-byte Reload
	movq	672(%rsp), %rsi         # 8-byte Reload
	movq	704(%rsp), %rdx         # 8-byte Reload
	movq	920(%rsp), %rcx         # 8-byte Reload
	movq	896(%rsp), %r8          # 8-byte Reload
	movl	908(%rsp), %r9d         # 4-byte Reload
	movl	$1, (%rsp)
	callq	trace_logger_log0
	movq	648(%rsp), %rdi         # 8-byte Reload
	movq	928(%rsp), %rsi         # 8-byte Reload
	movq	664(%rsp), %rdx         # 8-byte Reload
	movq	728(%rsp), %rcx         # 8-byte Reload
	movq	688(%rsp), %r8          # 8-byte Reload
	movq	736(%rsp), %r9          # 8-byte Reload
	movq	696(%rsp), %r10         # 8-byte Reload
	movq	%r10, (%rsp)
	callq	trace_logger_log_int
	movq	728(%rsp), %rdi         # 8-byte Reload
	movq	928(%rsp), %rsi         # 8-byte Reload
	movq	632(%rsp), %rdx         # 8-byte Reload
	movq	728(%rsp), %rcx         # 8-byte Reload
	movq	712(%rsp), %r8          # 8-byte Reload
	movq	736(%rsp), %r9          # 8-byte Reload
	movq	656(%rsp), %r10         # 8-byte Reload
	movq	%r10, (%rsp)
	callq	trace_logger_log_int
	movq	760(%rsp), %rdi         # 8-byte Reload
	movq	928(%rsp), %rsi         # 8-byte Reload
	movq	632(%rsp), %rdx         # 8-byte Reload
	movq	728(%rsp), %rcx         # 8-byte Reload
	movq	720(%rsp), %r8          # 8-byte Reload
	movq	736(%rsp), %r9          # 8-byte Reload
	movq	912(%rsp), %r10         # 8-byte Reload
	movq	%r10, (%rsp)
	callq	trace_logger_log_int
	movq	632(%rsp), %rdi         # 8-byte Reload
	callq	free
	movabsq	$24601, %rdi            # imm = 0x6019
	movabsq	$64, %rcx
	movabsq	$1, %rdx
	leaq	.L.str143, %r8
	movabsq	$0, %rsi
	leaq	.L.str144, %r9
	leaq	.L.str141, %r10
	leaq	.L.str142, %r11
	movabsq	$2, %rbx
	leaq	free, %r14
	leaq	.L.str139, %r15
	leaq	.L.str140, %r12
	movabsq	$105, %r13
	leaq	.L.str136, %rbp
	leaq	.L.str137, %rax
	movq	%rax, 624(%rsp)         # 8-byte Spill
	leaq	.L.str138, %rax
	movq	%rax, 616(%rsp)         # 8-byte Spill
	movabsq	$49, %rax
	movq	%rsi, 608(%rsp)         # 8-byte Spill
	movl	$0, %esi
	movl	%esi, 604(%rsp)         # 4-byte Spill
	movl	$1, %esi
	movq	%rax, 592(%rsp)         # 8-byte Spill
	movabsq	$19134, %rax            # imm = 0x4ABE
	movq	%rax, 584(%rsp)         # 8-byte Spill
	leaq	.L.str134, %rax
	movq	%rax, 576(%rsp)         # 8-byte Spill
	leaq	.L.str135, %rax
	movq	%rax, 568(%rsp)         # 8-byte Spill
	leaq	.L.str132, %rax
	movq	%rax, 560(%rsp)         # 8-byte Spill
	leaq	.L.str133, %rax
	movq	%rax, 552(%rsp)         # 8-byte Spill
	leaq	.L.str129, %rax
	movq	%rax, 544(%rsp)         # 8-byte Spill
	leaq	.L.str130, %rax
	movq	%rax, 536(%rsp)         # 8-byte Spill
	leaq	.L.str131, %rax
	movq	%rax, 528(%rsp)         # 8-byte Spill
	movabsq	$44, %rax
	movq	%rax, 520(%rsp)         # 8-byte Spill
	leaq	.L.str127, %rax
	movq	%rax, 512(%rsp)         # 8-byte Spill
	leaq	.L.str128, %rax
	movq	%rax, 504(%rsp)         # 8-byte Spill
	leaq	.L.str125, %rax
	movq	%rax, 496(%rsp)         # 8-byte Spill
	leaq	.L.str126, %rax
	movq	%rax, 488(%rsp)         # 8-byte Spill
	leaq	.L.str122, %rax
	movq	%rax, 480(%rsp)         # 8-byte Spill
	leaq	.L.str123, %rax
	movq	%rax, 472(%rsp)         # 8-byte Spill
	leaq	.L.str124, %rax
	movq	%rax, 464(%rsp)         # 8-byte Spill
	movabsq	$27, %rax
	.loc	1 105 0                 # cluster.c:105:0
	movq	%rdi, 456(%rsp)         # 8-byte Spill
	movq	%r13, %rdi
	movq	%rax, 448(%rsp)         # 8-byte Spill
	movq	480(%rsp), %rax         # 8-byte Reload
	movl	%esi, 444(%rsp)         # 4-byte Spill
	movq	%rax, %rsi
	movq	472(%rsp), %rax         # 8-byte Reload
	movq	%rdx, 432(%rsp)         # 8-byte Spill
	movq	%rax, %rdx
	movq	464(%rsp), %rax         # 8-byte Reload
	movq	%rcx, 424(%rsp)         # 8-byte Spill
	movq	%rax, %rcx
	movq	448(%rsp), %rax         # 8-byte Reload
	movq	%r8, 416(%rsp)          # 8-byte Spill
	movq	%rax, %r8
	movl	604(%rsp), %eax         # 4-byte Reload
	movq	%r9, 408(%rsp)          # 8-byte Spill
	movl	%eax, %r9d
	movl	$1, (%rsp)
	movq	%r12, 400(%rsp)         # 8-byte Spill
	movq	%r13, 392(%rsp)         # 8-byte Spill
	movq	%r15, 384(%rsp)         # 8-byte Spill
	movq	%rbp, 376(%rsp)         # 8-byte Spill
	movq	%r14, 368(%rsp)         # 8-byte Spill
	movq	%r10, 360(%rsp)         # 8-byte Spill
	movq	%r11, 352(%rsp)         # 8-byte Spill
	movq	%rbx, 344(%rsp)         # 8-byte Spill
	callq	trace_logger_log0
	movq	432(%rsp), %rdi         # 8-byte Reload
	movq	424(%rsp), %rsi         # 8-byte Reload
	movq	2000(%rsp), %rdx        # 8-byte Reload
	movq	432(%rsp), %rcx         # 8-byte Reload
	movq	496(%rsp), %r8          # 8-byte Reload
	movq	608(%rsp), %r9          # 8-byte Reload
	movq	488(%rsp), %r10         # 8-byte Reload
	movq	%r10, (%rsp)
	callq	trace_logger_log_int
	movq	2000(%rsp), %rcx        # 8-byte Reload
	movq	(%rcx), %rdx
	movq	584(%rsp), %rdi         # 8-byte Reload
	movq	424(%rsp), %rsi         # 8-byte Reload
	movq	%rdx, 336(%rsp)         # 8-byte Spill
	movq	432(%rsp), %rcx         # 8-byte Reload
	movq	512(%rsp), %r8          # 8-byte Reload
	movq	608(%rsp), %r9          # 8-byte Reload
	movq	504(%rsp), %r10         # 8-byte Reload
	movq	%r10, (%rsp)
	callq	trace_logger_log_int
	movq	392(%rsp), %rdi         # 8-byte Reload
	movq	544(%rsp), %rsi         # 8-byte Reload
	movq	536(%rsp), %rdx         # 8-byte Reload
	movq	528(%rsp), %rcx         # 8-byte Reload
	movq	520(%rsp), %r8          # 8-byte Reload
	movl	604(%rsp), %r9d         # 4-byte Reload
	movl	$1, (%rsp)
	callq	trace_logger_log0
	movq	432(%rsp), %rdi         # 8-byte Reload
	movq	424(%rsp), %rsi         # 8-byte Reload
	movq	336(%rsp), %rdx         # 8-byte Reload
	movq	432(%rsp), %rcx         # 8-byte Reload
	movq	560(%rsp), %r8          # 8-byte Reload
	movq	608(%rsp), %r9          # 8-byte Reload
	movq	552(%rsp), %r10         # 8-byte Reload
	movq	%r10, (%rsp)
	callq	trace_logger_log_int
	movq	336(%rsp), %rcx         # 8-byte Reload
	movq	584(%rsp), %rdi         # 8-byte Reload
	movq	424(%rsp), %rsi         # 8-byte Reload
	movq	%rcx, %rdx
	movq	432(%rsp), %r8          # 8-byte Reload
	movq	%rcx, 328(%rsp)         # 8-byte Spill
	movq	%r8, %rcx
	movq	576(%rsp), %r8          # 8-byte Reload
	movq	608(%rsp), %r9          # 8-byte Reload
	movq	568(%rsp), %r10         # 8-byte Reload
	movq	%r10, (%rsp)
	callq	trace_logger_log_int
	movq	392(%rsp), %rdi         # 8-byte Reload
	movq	376(%rsp), %rsi         # 8-byte Reload
	movq	624(%rsp), %rdx         # 8-byte Reload
	movq	616(%rsp), %rcx         # 8-byte Reload
	movq	592(%rsp), %r8          # 8-byte Reload
	movl	604(%rsp), %r9d         # 4-byte Reload
	movl	$1, (%rsp)
	callq	trace_logger_log0
	movq	344(%rsp), %rdi         # 8-byte Reload
	movq	424(%rsp), %rsi         # 8-byte Reload
	movq	368(%rsp), %rdx         # 8-byte Reload
	movq	432(%rsp), %rcx         # 8-byte Reload
	movq	384(%rsp), %r8          # 8-byte Reload
	movq	608(%rsp), %r9          # 8-byte Reload
	movq	400(%rsp), %r10         # 8-byte Reload
	movq	%r10, (%rsp)
	callq	trace_logger_log_int
	movq	432(%rsp), %rdi         # 8-byte Reload
	movq	424(%rsp), %rsi         # 8-byte Reload
	movq	328(%rsp), %rdx         # 8-byte Reload
	movq	432(%rsp), %rcx         # 8-byte Reload
	movq	360(%rsp), %r8          # 8-byte Reload
	movq	608(%rsp), %r9          # 8-byte Reload
	movq	352(%rsp), %r10         # 8-byte Reload
	movq	%r10, (%rsp)
	callq	trace_logger_log_int
	movq	456(%rsp), %rdi         # 8-byte Reload
	movq	424(%rsp), %rsi         # 8-byte Reload
	movq	328(%rsp), %rdx         # 8-byte Reload
	movq	432(%rsp), %rcx         # 8-byte Reload
	movq	416(%rsp), %r8          # 8-byte Reload
	movq	608(%rsp), %r9          # 8-byte Reload
	movq	408(%rsp), %r10         # 8-byte Reload
	movq	%r10, (%rsp)
	callq	trace_logger_log_int
	movq	328(%rsp), %rdi         # 8-byte Reload
	callq	free
	movabsq	$1, %rcx
	movabsq	$0, %rdx
	leaq	.L.str148, %r8
	leaq	.L.str149, %rsi
	movabsq	$106, %rdi
	leaq	.L.str145, %r9
	leaq	.L.str146, %r10
	leaq	.L.str147, %r11
	movabsq	$2, %rbx
	movl	$0, %eax
	movl	$1, %ebp
	.loc	1 106 0                 # cluster.c:106:0
	movq	%rsi, 320(%rsp)         # 8-byte Spill
	movq	%r9, %rsi
	movq	%rdx, 312(%rsp)         # 8-byte Spill
	movq	%r10, %rdx
	movq	%rcx, 304(%rsp)         # 8-byte Spill
	movq	%r11, %rcx
	movq	%r8, 296(%rsp)          # 8-byte Spill
	movq	%rbx, %r8
	movl	%eax, %r9d
	movl	$1, (%rsp)
	movl	%ebp, 292(%rsp)         # 4-byte Spill
	callq	trace_logger_log0
	movq	304(%rsp), %rdi         # 8-byte Reload
	movq	312(%rsp), %rsi         # 8-byte Reload
	movq	312(%rsp), %rdx         # 8-byte Reload
	movq	304(%rsp), %rcx         # 8-byte Reload
	movq	296(%rsp), %r8          # 8-byte Reload
	movq	312(%rsp), %r9          # 8-byte Reload
	movq	320(%rsp), %r10         # 8-byte Reload
	movq	%r10, (%rsp)
	callq	trace_logger_log_int
.Ltmp32:
.LBB0_2:
	movabsq	$24601, %rdi            # imm = 0x6019
	movabsq	$64, %rax
	movabsq	$1, %rcx
	leaq	.L.str164, %r8
	movabsq	$0, %rdx
	leaq	.L.str165, %rsi
	leaq	.L.str162, %r9
	leaq	.L.str163, %r10
	movabsq	$2, %r11
	leaq	free, %rbx
	leaq	.L.str160, %r14
	leaq	.L.str161, %r15
	movabsq	$110, %r12
	leaq	.L.str157, %r13
	leaq	.L.str158, %rbp
	movq	%rax, 280(%rsp)         # 8-byte Spill
	leaq	.L.str159, %rax
	movq	%rax, 272(%rsp)         # 8-byte Spill
	movabsq	$49, %rax
	movq	%rsi, 264(%rsp)         # 8-byte Spill
	movl	$0, %esi
	movl	%esi, 260(%rsp)         # 4-byte Spill
	movl	$1, %esi
	movq	%rax, 248(%rsp)         # 8-byte Spill
	leaq	.L.str155, %rax
	movq	%rax, 240(%rsp)         # 8-byte Spill
	leaq	.L.str156, %rax
	movq	%rax, 232(%rsp)         # 8-byte Spill
	leaq	.L.str153, %rax
	movq	%rax, 224(%rsp)         # 8-byte Spill
	leaq	.L.str154, %rax
	movq	%rax, 216(%rsp)         # 8-byte Spill
	movabsq	$107, %rax
	movq	%rax, 208(%rsp)         # 8-byte Spill
	leaq	.L.str150, %rax
	movq	%rax, 200(%rsp)         # 8-byte Spill
	leaq	.L.str151, %rax
	movq	%rax, 192(%rsp)         # 8-byte Spill
	leaq	.L.str152, %rax
	movq	%rax, 184(%rsp)         # 8-byte Spill
	movabsq	$28, %rax
	.loc	1 107 0                 # cluster.c:107:0
	movq	%rax, 176(%rsp)         # 8-byte Spill
	movq	208(%rsp), %rax         # 8-byte Reload
	movq	%rdi, 168(%rsp)         # 8-byte Spill
	movq	%rax, %rdi
	movq	200(%rsp), %rax         # 8-byte Reload
	movl	%esi, 164(%rsp)         # 4-byte Spill
	movq	%rax, %rsi
	movq	192(%rsp), %rax         # 8-byte Reload
	movq	%rdx, 152(%rsp)         # 8-byte Spill
	movq	%rax, %rdx
	movq	184(%rsp), %rax         # 8-byte Reload
	movq	%rcx, 144(%rsp)         # 8-byte Spill
	movq	%rax, %rcx
	movq	176(%rsp), %rax         # 8-byte Reload
	movq	%r8, 136(%rsp)          # 8-byte Spill
	movq	%rax, %r8
	movl	260(%rsp), %eax         # 4-byte Reload
	movq	%r9, 128(%rsp)          # 8-byte Spill
	movl	%eax, %r9d
	movl	$1, (%rsp)
	movq	%rbp, 120(%rsp)         # 8-byte Spill
	movq	%r15, 112(%rsp)         # 8-byte Spill
	movq	%r14, 104(%rsp)         # 8-byte Spill
	movq	%r12, 96(%rsp)          # 8-byte Spill
	movq	%r13, 88(%rsp)          # 8-byte Spill
	movq	%rbx, 80(%rsp)          # 8-byte Spill
	movq	%r10, 72(%rsp)          # 8-byte Spill
	movq	%r11, 64(%rsp)          # 8-byte Spill
	callq	trace_logger_log0
	movq	64(%rsp), %rdi          # 8-byte Reload
	movq	280(%rsp), %rsi         # 8-byte Reload
	movq	2000(%rsp), %rdx        # 8-byte Reload
	movq	144(%rsp), %rcx         # 8-byte Reload
	movq	224(%rsp), %r8          # 8-byte Reload
	movq	152(%rsp), %r9          # 8-byte Reload
	movq	216(%rsp), %r10         # 8-byte Reload
	movq	%r10, (%rsp)
	callq	trace_logger_log_int
	movq	144(%rsp), %rdi         # 8-byte Reload
	movq	280(%rsp), %rsi         # 8-byte Reload
	movq	1240(%rsp), %rdx        # 8-byte Reload
	movq	144(%rsp), %rcx         # 8-byte Reload
	movq	240(%rsp), %r8          # 8-byte Reload
	movq	152(%rsp), %r9          # 8-byte Reload
	movq	232(%rsp), %r10         # 8-byte Reload
	movq	%r10, (%rsp)
	callq	trace_logger_log_int
	movq	2000(%rsp), %rcx        # 8-byte Reload
	movq	1240(%rsp), %rdx        # 8-byte Reload
	movq	%rdx, (%rcx)
	.loc	1 110 0                 # cluster.c:110:0
	movq	96(%rsp), %rdi          # 8-byte Reload
	movq	88(%rsp), %rsi          # 8-byte Reload
	movq	120(%rsp), %rdx         # 8-byte Reload
	movq	272(%rsp), %rcx         # 8-byte Reload
	movq	248(%rsp), %r8          # 8-byte Reload
	movl	260(%rsp), %r9d         # 4-byte Reload
	movl	$1, (%rsp)
	callq	trace_logger_log0
	movq	64(%rsp), %rdi          # 8-byte Reload
	movq	280(%rsp), %rsi         # 8-byte Reload
	movq	80(%rsp), %rdx          # 8-byte Reload
	movq	144(%rsp), %rcx         # 8-byte Reload
	movq	104(%rsp), %r8          # 8-byte Reload
	movq	152(%rsp), %r9          # 8-byte Reload
	movq	112(%rsp), %r10         # 8-byte Reload
	movq	%r10, (%rsp)
	callq	trace_logger_log_int
	movq	144(%rsp), %rdi         # 8-byte Reload
	movq	280(%rsp), %rsi         # 8-byte Reload
	movq	1896(%rsp), %rdx        # 8-byte Reload
	movq	144(%rsp), %rcx         # 8-byte Reload
	movq	128(%rsp), %r8          # 8-byte Reload
	movq	152(%rsp), %r9          # 8-byte Reload
	movq	72(%rsp), %r10          # 8-byte Reload
	movq	%r10, (%rsp)
	callq	trace_logger_log_int
	movq	168(%rsp), %rdi         # 8-byte Reload
	movq	280(%rsp), %rsi         # 8-byte Reload
	movq	1896(%rsp), %rdx        # 8-byte Reload
	movq	144(%rsp), %rcx         # 8-byte Reload
	movq	136(%rsp), %r8          # 8-byte Reload
	movq	152(%rsp), %r9          # 8-byte Reload
	movq	264(%rsp), %r10         # 8-byte Reload
	movq	%r10, (%rsp)
	callq	trace_logger_log_int
	movq	1896(%rsp), %rdi        # 8-byte Reload
	callq	free
	movl	$0, %eax
	movabsq	$1, %rcx
	movabsq	$32, %rsi
	movabsq	$0, %rdx
	leaq	.L.str169, %r8
	leaq	.L.str170, %rdi
	movabsq	$112, %r9
	leaq	.L.str166, %r10
	leaq	.L.str167, %r11
	leaq	.L.str168, %rbx
	movl	$1, %ebp
	.loc	1 112 0                 # cluster.c:112:0
	movq	%rdi, 56(%rsp)          # 8-byte Spill
	movq	%r9, %rdi
	movq	%rsi, 48(%rsp)          # 8-byte Spill
	movq	%r10, %rsi
	movq	%rdx, 40(%rsp)          # 8-byte Spill
	movq	%r11, %rdx
	movq	%rcx, 32(%rsp)          # 8-byte Spill
	movq	%rbx, %rcx
	movq	32(%rsp), %r9           # 8-byte Reload
	movq	%r8, 24(%rsp)           # 8-byte Spill
	movq	%r9, %r8
	movl	%eax, %r9d
	movl	$1, (%rsp)
	movl	%eax, 20(%rsp)          # 4-byte Spill
	movl	%ebp, 16(%rsp)          # 4-byte Spill
	callq	trace_logger_log0
	movq	32(%rsp), %rdi          # 8-byte Reload
	movq	48(%rsp), %rsi          # 8-byte Reload
	movq	40(%rsp), %rdx          # 8-byte Reload
	movq	40(%rsp), %rcx          # 8-byte Reload
	movq	24(%rsp), %r8           # 8-byte Reload
	movq	40(%rsp), %r9           # 8-byte Reload
	movq	56(%rsp), %r10          # 8-byte Reload
	movq	%r10, (%rsp)
	callq	trace_logger_log_int
	movl	20(%rsp), %eax          # 4-byte Reload
	addq	$2264, %rsp             # imm = 0x8D8
	popq	%rbx
	popq	%r12
	popq	%r13
	popq	%r14
	popq	%r15
	popq	%rbp
	ret
.Ltmp33:
.Ltmp34:
	.size	cluster, .Ltmp34-cluster
.Lfunc_end0:
	.cfi_endproc

	.globl	usage
	.align	16, 0x90
	.type	usage,@function
usage:                                  # @usage
	.cfi_startproc
.Lfunc_begin1:
	.loc	3 85 0                  # kmeans.c:85:0
# BB#0:
	pushq	%rbp
.Ltmp42:
	.cfi_def_cfa_offset 16
	pushq	%r15
.Ltmp43:
	.cfi_def_cfa_offset 24
	pushq	%r14
.Ltmp44:
	.cfi_def_cfa_offset 32
	pushq	%r13
.Ltmp45:
	.cfi_def_cfa_offset 40
	pushq	%r12
.Ltmp46:
	.cfi_def_cfa_offset 48
	pushq	%rbx
.Ltmp47:
	.cfi_def_cfa_offset 56
	subq	$520, %rsp              # imm = 0x208
.Ltmp48:
	.cfi_def_cfa_offset 576
.Ltmp49:
	.cfi_offset %rbx, -56
.Ltmp50:
	.cfi_offset %r12, -48
.Ltmp51:
	.cfi_offset %r13, -40
.Ltmp52:
	.cfi_offset %r14, -32
.Ltmp53:
	.cfi_offset %r15, -24
.Ltmp54:
	.cfi_offset %rbp, -16
	movabsq	$24601, %rax            # imm = 0x6019
	movabsq	$64, %rcx
	leaq	.L.str171, %rdx
	movabsq	$1, %rsi
	leaq	.L.str28199, %r8
	movabsq	$0, %r9
	leaq	.L.str29200, %r10
	movabsq	$2, %r11
	leaq	.L.str26197, %rbx
	leaq	.L.str27198, %r14
	leaq	.L.str24195, %r15
	leaq	.L.str25196, %r12
	leaq	.L.str22193, %r13
	leaq	.L.str23194, %rbp
	movq	%rax, 512(%rsp)         # 8-byte Spill
	movabsq	$4, %rax
	movq	%rax, 504(%rsp)         # 8-byte Spill
	leaq	fprintf, %rax
	movq	%rax, 496(%rsp)         # 8-byte Spill
	leaq	.L.str20191, %rax
	movq	%rax, 488(%rsp)         # 8-byte Spill
	leaq	.L.str21192, %rax
	movq	%rax, 480(%rsp)         # 8-byte Spill
	movabsq	$92, %rax
	movq	%rax, 472(%rsp)         # 8-byte Spill
	leaq	.L.str17188, %rax
	movq	%rax, 464(%rsp)         # 8-byte Spill
	leaq	.L.str18189, %rax
	movq	%rax, 456(%rsp)         # 8-byte Spill
	leaq	.L.str19190, %rax
	movq	%rax, 448(%rsp)         # 8-byte Spill
	movabsq	$49, %rax
	movq	%rsi, 440(%rsp)         # 8-byte Spill
	movl	$0, %esi
	movl	%esi, 436(%rsp)         # 4-byte Spill
	movl	$1, %esi
	movq	%rax, 424(%rsp)         # 8-byte Spill
	movabsq	$19134, %rax            # imm = 0x4ABE
	movq	%rax, 416(%rsp)         # 8-byte Spill
	leaq	.L.str15186, %rax
	movq	%rax, 408(%rsp)         # 8-byte Spill
	leaq	.L.str16187, %rax
	movq	%rax, 400(%rsp)         # 8-byte Spill
	leaq	stderr, %rax
	movq	%rax, 392(%rsp)         # 8-byte Spill
	leaq	.L.str13184, %rax
	movq	%rax, 384(%rsp)         # 8-byte Spill
	leaq	.L.str14185, %rax
	movq	%rax, 376(%rsp)         # 8-byte Spill
	leaq	.L.str10181, %rax
	movq	%rax, 368(%rsp)         # 8-byte Spill
	leaq	.L.str11182, %rax
	movq	%rax, 360(%rsp)         # 8-byte Spill
	leaq	.L.str12183, %rax
	movq	%rax, 352(%rsp)         # 8-byte Spill
	movabsq	$27, %rax
	#DEBUG_VALUE: usage:argv0 <- RDI
	.loc	3 92 0 prologue_end     # kmeans.c:92:0
.Ltmp55:
	movq	%rax, 344(%rsp)         # 8-byte Spill
	movq	472(%rsp), %rax         # 8-byte Reload
	movq	%rdi, 336(%rsp)         # 8-byte Spill
.Ltmp56:
	#DEBUG_VALUE: usage:argv0 <- [RSP+336]
	movq	%rax, %rdi
	movq	368(%rsp), %rax         # 8-byte Reload
	movl	%esi, 332(%rsp)         # 4-byte Spill
	movq	%rax, %rsi
	movq	360(%rsp), %rax         # 8-byte Reload
	movq	%rdx, 320(%rsp)         # 8-byte Spill
	movq	%rax, %rdx
	movq	352(%rsp), %rax         # 8-byte Reload
	movq	%rcx, 312(%rsp)         # 8-byte Spill
	movq	%rax, %rcx
	movq	344(%rsp), %rax         # 8-byte Reload
	movq	%r8, 304(%rsp)          # 8-byte Spill
	movq	%rax, %r8
	movl	436(%rsp), %eax         # 4-byte Reload
	movq	%r9, 296(%rsp)          # 8-byte Spill
	movl	%eax, %r9d
	movl	$1, (%rsp)
	movq	%rbp, 288(%rsp)         # 8-byte Spill
	movq	%r15, 280(%rsp)         # 8-byte Spill
	movq	%r12, 272(%rsp)         # 8-byte Spill
	movq	%r13, 264(%rsp)         # 8-byte Spill
	movq	%r14, 256(%rsp)         # 8-byte Spill
	movq	%rbx, 248(%rsp)         # 8-byte Spill
	movq	%r10, 240(%rsp)         # 8-byte Spill
	movq	%r11, 232(%rsp)         # 8-byte Spill
	callq	trace_logger_log0
	movq	440(%rsp), %rdi         # 8-byte Reload
	movq	312(%rsp), %rsi         # 8-byte Reload
	movq	392(%rsp), %rdx         # 8-byte Reload
	movq	440(%rsp), %rcx         # 8-byte Reload
	movq	384(%rsp), %r8          # 8-byte Reload
	movq	296(%rsp), %r9          # 8-byte Reload
	movq	376(%rsp), %r10         # 8-byte Reload
	movq	%r10, (%rsp)
	callq	trace_logger_log_int
	movq	stderr, %rcx
	movq	416(%rsp), %rdi         # 8-byte Reload
	movq	312(%rsp), %rsi         # 8-byte Reload
	movq	%rcx, %rdx
	movq	440(%rsp), %r8          # 8-byte Reload
	movq	%rcx, 224(%rsp)         # 8-byte Spill
	movq	%r8, %rcx
	movq	408(%rsp), %r8          # 8-byte Reload
	movq	296(%rsp), %r9          # 8-byte Reload
	movq	400(%rsp), %r10         # 8-byte Reload
	movq	%r10, (%rsp)
	callq	trace_logger_log_int
	movq	472(%rsp), %rdi         # 8-byte Reload
	movq	464(%rsp), %rsi         # 8-byte Reload
	movq	456(%rsp), %rdx         # 8-byte Reload
	movq	448(%rsp), %rcx         # 8-byte Reload
	movq	424(%rsp), %r8          # 8-byte Reload
	movl	436(%rsp), %r9d         # 4-byte Reload
	movl	$1, (%rsp)
	callq	trace_logger_log0
	movq	504(%rsp), %rdi         # 8-byte Reload
	movq	312(%rsp), %rsi         # 8-byte Reload
	movq	496(%rsp), %rdx         # 8-byte Reload
	movq	440(%rsp), %rcx         # 8-byte Reload
	movq	488(%rsp), %r8          # 8-byte Reload
	movq	296(%rsp), %r9          # 8-byte Reload
	movq	480(%rsp), %r10         # 8-byte Reload
	movq	%r10, (%rsp)
	callq	trace_logger_log_int
	movq	440(%rsp), %rdi         # 8-byte Reload
	movq	312(%rsp), %rsi         # 8-byte Reload
	movq	224(%rsp), %rdx         # 8-byte Reload
	movq	440(%rsp), %rcx         # 8-byte Reload
	movq	264(%rsp), %r8          # 8-byte Reload
	movq	296(%rsp), %r9          # 8-byte Reload
	movq	288(%rsp), %r10         # 8-byte Reload
	movq	%r10, (%rsp)
	callq	trace_logger_log_int
	movq	512(%rsp), %rdi         # 8-byte Reload
	movq	312(%rsp), %rsi         # 8-byte Reload
	movq	224(%rsp), %rdx         # 8-byte Reload
	movq	440(%rsp), %rcx         # 8-byte Reload
	movq	280(%rsp), %r8          # 8-byte Reload
	movq	296(%rsp), %r9          # 8-byte Reload
	movq	272(%rsp), %r10         # 8-byte Reload
	movq	%r10, (%rsp)
	callq	trace_logger_log_int
	movq	232(%rsp), %rdi         # 8-byte Reload
	movq	312(%rsp), %rsi         # 8-byte Reload
	movq	320(%rsp), %rdx         # 8-byte Reload
	movq	296(%rsp), %rcx         # 8-byte Reload
	movq	248(%rsp), %r8          # 8-byte Reload
	movq	296(%rsp), %r9          # 8-byte Reload
	movq	256(%rsp), %r10         # 8-byte Reload
	movq	%r10, (%rsp)
	callq	trace_logger_log_int
	movq	512(%rsp), %rdi         # 8-byte Reload
	movq	312(%rsp), %rsi         # 8-byte Reload
	movq	320(%rsp), %rdx         # 8-byte Reload
	movq	440(%rsp), %rcx         # 8-byte Reload
	movq	304(%rsp), %r8          # 8-byte Reload
	movq	296(%rsp), %r9          # 8-byte Reload
	movq	240(%rsp), %r10         # 8-byte Reload
	movq	%r10, (%rsp)
	callq	trace_logger_log_int
	movl	$.L.str171, %eax
	movl	%eax, %esi
	xorl	%eax, %eax
                                        # kill: AL<def> AL<kill> EAX<kill>
	movq	224(%rsp), %rdi         # 8-byte Reload
	movq	336(%rsp), %rdx         # 8-byte Reload
	callq	fprintf
.Ltmp57:
	movabsq	$24601, %rdi            # imm = 0x6019
	movabsq	$32, %rcx
	movabsq	$4294967295, %rdx       # imm = 0xFFFFFFFF
	movabsq	$1, %rsi
	leaq	.L.str39210, %r8
	movabsq	$0, %r9
	leaq	.L.str40211, %r10
	leaq	.L.str37208, %r11
	leaq	.L.str38209, %rbx
	movabsq	$2, %r14
	movabsq	$64, %r15
	leaq	exit, %r12
	leaq	.L.str35206, %r13
	leaq	.L.str36207, %rbp
	movq	%rcx, 216(%rsp)         # 8-byte Spill
	movabsq	$93, %rcx
	movq	%rcx, 208(%rsp)         # 8-byte Spill
	leaq	.L.str32203, %rcx
	movq	%rcx, 200(%rsp)         # 8-byte Spill
	leaq	.L.str33204, %rcx
	movq	%rcx, 192(%rsp)         # 8-byte Spill
	leaq	.L.str34205, %rcx
	movq	%rcx, 184(%rsp)         # 8-byte Spill
	movabsq	$49, %rcx
	movl	%eax, 180(%rsp)         # 4-byte Spill
	movl	$0, %eax
	movl	%eax, 176(%rsp)         # 4-byte Spill
	movl	$1, %eax
	movq	%rcx, 168(%rsp)         # 8-byte Spill
	movabsq	$19134, %rcx            # imm = 0x4ABE
	movq	%rcx, 160(%rsp)         # 8-byte Spill
	leaq	.L.str30201, %rcx
	movq	%rcx, 152(%rsp)         # 8-byte Spill
	leaq	.L.str31202, %rcx
	.loc	3 93 0                  # kmeans.c:93:0
	movl	%eax, 148(%rsp)         # 4-byte Spill
	movl	180(%rsp), %eax         # 4-byte Reload
	movl	%eax, %eax
                                        # kill: RAX<def> EAX<kill>
	movq	%rax, 136(%rsp)         # 8-byte Spill
	movq	160(%rsp), %rax         # 8-byte Reload
	movq	%rdi, 128(%rsp)         # 8-byte Spill
	movq	%rax, %rdi
	movq	216(%rsp), %rax         # 8-byte Reload
	movq	%rsi, 120(%rsp)         # 8-byte Spill
	movq	%rax, %rsi
	movq	136(%rsp), %rax         # 8-byte Reload
	movq	%rdx, 112(%rsp)         # 8-byte Spill
	movq	%rax, %rdx
	movq	120(%rsp), %rax         # 8-byte Reload
	movq	%rcx, 104(%rsp)         # 8-byte Spill
	movq	%rax, %rcx
	movq	152(%rsp), %rax         # 8-byte Reload
	movq	%r8, 96(%rsp)           # 8-byte Spill
	movq	%rax, %r8
	movq	%r9, 88(%rsp)           # 8-byte Spill
	movq	104(%rsp), %rax         # 8-byte Reload
	movq	%rax, (%rsp)
	movq	%rbp, 80(%rsp)          # 8-byte Spill
	movq	%r15, 72(%rsp)          # 8-byte Spill
	movq	%r12, 64(%rsp)          # 8-byte Spill
	movq	%r13, 56(%rsp)          # 8-byte Spill
	movq	%r14, 48(%rsp)          # 8-byte Spill
	movq	%rbx, 40(%rsp)          # 8-byte Spill
	movq	%r10, 32(%rsp)          # 8-byte Spill
	movq	%r11, 24(%rsp)          # 8-byte Spill
	callq	trace_logger_log_int
	movq	208(%rsp), %rdi         # 8-byte Reload
	movq	200(%rsp), %rsi         # 8-byte Reload
	movq	192(%rsp), %rdx         # 8-byte Reload
	movq	184(%rsp), %rcx         # 8-byte Reload
	movq	168(%rsp), %r8          # 8-byte Reload
	movl	176(%rsp), %r9d         # 4-byte Reload
	movl	$1, (%rsp)
	callq	trace_logger_log0
	movq	48(%rsp), %rdi          # 8-byte Reload
	movq	72(%rsp), %rsi          # 8-byte Reload
	movq	64(%rsp), %rdx          # 8-byte Reload
	movq	120(%rsp), %rcx         # 8-byte Reload
	movq	56(%rsp), %r8           # 8-byte Reload
	movq	88(%rsp), %r9           # 8-byte Reload
	movq	80(%rsp), %rax          # 8-byte Reload
	movq	%rax, (%rsp)
	callq	trace_logger_log_int
	movq	120(%rsp), %rdi         # 8-byte Reload
	movq	216(%rsp), %rsi         # 8-byte Reload
	movq	112(%rsp), %rdx         # 8-byte Reload
	movq	88(%rsp), %rcx          # 8-byte Reload
	movq	24(%rsp), %r8           # 8-byte Reload
	movq	88(%rsp), %r9           # 8-byte Reload
	movq	40(%rsp), %rax          # 8-byte Reload
	movq	%rax, (%rsp)
	callq	trace_logger_log_int
	movq	128(%rsp), %rdi         # 8-byte Reload
	movq	216(%rsp), %rsi         # 8-byte Reload
	movq	112(%rsp), %rdx         # 8-byte Reload
	movq	120(%rsp), %rcx         # 8-byte Reload
	movq	96(%rsp), %r8           # 8-byte Reload
	movq	88(%rsp), %r9           # 8-byte Reload
	movq	32(%rsp), %rax          # 8-byte Reload
	movq	%rax, (%rsp)
	callq	trace_logger_log_int
	movl	$-1, %edi
	callq	exit
	movabsq	$93, %rdi
	leaq	.L.str41212, %rsi
	leaq	.L.str42213, %rdx
	leaq	.L.str43214, %rcx
	movabsq	$7, %r8
	movl	$0, %r9d
	movl	$1, %r10d
	movl	$1, (%rsp)
	movl	%r10d, 20(%rsp)         # 4-byte Spill
	callq	trace_logger_log0
.Ltmp58:
.Ltmp59:
	.size	usage, .Ltmp59-usage
.Lfunc_end1:
	.cfi_endproc

	.section	.rodata.cst4,"aM",@progbits,4
	.align	4
.LCPI2_0:
	.long	981668463               # float 0.00100000005
	.section	.rodata.cst8,"aM",@progbits,8
	.align	8
.LCPI2_1:
	.quad	4562254509136412672     # double 0.0010000000474974513
	.text
	.globl	main
	.align	16, 0x90
	.type	main,@function
main:                                   # @main
	.cfi_startproc
.Lfunc_begin2:
	.loc	3 97 0                  # kmeans.c:97:0
# BB#0:
	pushq	%rbp
.Ltmp67:
	.cfi_def_cfa_offset 16
	pushq	%r15
.Ltmp68:
	.cfi_def_cfa_offset 24
	pushq	%r14
.Ltmp69:
	.cfi_def_cfa_offset 32
	pushq	%r13
.Ltmp70:
	.cfi_def_cfa_offset 40
	pushq	%r12
.Ltmp71:
	.cfi_def_cfa_offset 48
	pushq	%rbx
.Ltmp72:
	.cfi_def_cfa_offset 56
	subq	$25576, %rsp            # imm = 0x63E8
.Ltmp73:
	.cfi_def_cfa_offset 25632
.Ltmp74:
	.cfi_offset %rbx, -56
.Ltmp75:
	.cfi_offset %r12, -48
.Ltmp76:
	.cfi_offset %r13, -40
.Ltmp77:
	.cfi_offset %r14, -32
.Ltmp78:
	.cfi_offset %r15, -24
.Ltmp79:
	.cfi_offset %rbp, -16
	movl	$0, %eax
	vmovss	.LCPI2_0, %xmm0
	movabsq	$0, %rcx
	movl	$5, %edx
	movabsq	$1, %r8
	leaq	.L.str93264, %r9
	leaq	.L.str94265, %r10
	movabsq	$118, %r11
	leaq	.L.str90261, %rbx
	leaq	.L.str91262, %r14
	leaq	.L.str92263, %r15
	movabsq	$2, %r12
	movl	$1, %ebp
	movabsq	$19134, %r13            # imm = 0x4ABE
	movq	%rcx, 24520(%rsp)       # 8-byte Spill
	movabsq	$64, %rcx
	movq	%rcx, 24512(%rsp)       # 8-byte Spill
	leaq	.L.str88259, %rcx
	movq	%rcx, 24504(%rsp)       # 8-byte Spill
	leaq	.L.str89260, %rcx
	movq	%rcx, 24496(%rsp)       # 8-byte Spill
	leaq	24528(%rsp), %rcx
	movq	%rcx, 24488(%rsp)       # 8-byte Spill
	leaq	.L.str86257, %rcx
	movq	%rcx, 24480(%rsp)       # 8-byte Spill
	leaq	.L.str87258, %rcx
	movq	%rcx, 24472(%rsp)       # 8-byte Spill
	leaq	.L.str84255, %rcx
	movq	%rcx, 24464(%rsp)       # 8-byte Spill
	leaq	.L.str85256, %rcx
	movq	%rcx, 24456(%rsp)       # 8-byte Spill
	movabsq	$3, %rcx
	movq	%rcx, 24448(%rsp)       # 8-byte Spill
	leaq	.L.str82253, %rcx
	movq	%rcx, 24440(%rsp)       # 8-byte Spill
	leaq	.L.str83254, %rcx
	movq	%rcx, 24432(%rsp)       # 8-byte Spill
	movabsq	$110, %rcx
	movq	%rcx, 24424(%rsp)       # 8-byte Spill
	leaq	.L.str79250, %rcx
	movq	%rcx, 24416(%rsp)       # 8-byte Spill
	leaq	.L.str80251, %rcx
	movq	%rcx, 24408(%rsp)       # 8-byte Spill
	leaq	.L.str81252, %rcx
	movq	%rcx, 24400(%rsp)       # 8-byte Spill
	movabsq	$29, %rcx
	movq	%rcx, 24392(%rsp)       # 8-byte Spill
	leaq	.L.str77248, %rcx
	movq	%rcx, 24384(%rsp)       # 8-byte Spill
	leaq	.L.str78249, %rcx
	movq	%rcx, 24376(%rsp)       # 8-byte Spill
	leaq	.L.str75246, %rcx
	movq	%rcx, 24368(%rsp)       # 8-byte Spill
	leaq	.L.str76247, %rcx
	movq	%rcx, 24360(%rsp)       # 8-byte Spill
	leaq	25568(%rsp), %rcx
	movq	%rcx, 24352(%rsp)       # 8-byte Spill
	movabsq	$105, %rcx
	movq	%rcx, 24344(%rsp)       # 8-byte Spill
	leaq	.L.str72243, %rcx
	movq	%rcx, 24336(%rsp)       # 8-byte Spill
	leaq	.L.str73244, %rcx
	movq	%rcx, 24328(%rsp)       # 8-byte Spill
	leaq	.L.str74245, %rcx
	movq	%rcx, 24320(%rsp)       # 8-byte Spill
	movabsq	$28, %rcx
	movq	%rcx, 24312(%rsp)       # 8-byte Spill
	leaq	.L.str70241, %rcx
	movq	%rcx, 24304(%rsp)       # 8-byte Spill
	leaq	.L.str71242, %rcx
	movq	%rcx, 24296(%rsp)       # 8-byte Spill
	movabsq	$32, %rcx
	movq	%rcx, 24288(%rsp)       # 8-byte Spill
	leaq	.L.str68239, %rcx
	movq	%rcx, 24280(%rsp)       # 8-byte Spill
	leaq	.L.str69240, %rcx
	movq	%rcx, 24272(%rsp)       # 8-byte Spill
	movabsq	$-1, %rcx
	movq	%rcx, 24264(%rsp)       # 8-byte Spill
	leaq	.L.str65236, %rcx
	movq	%rcx, 24256(%rsp)       # 8-byte Spill
	leaq	.L.str66237, %rcx
	movq	%rcx, 24248(%rsp)       # 8-byte Spill
	leaq	.L.str67238, %rcx
	movq	%rcx, 24240(%rsp)       # 8-byte Spill
	movabsq	$26, %rcx
	movq	%rcx, 24232(%rsp)       # 8-byte Spill
	leaq	.L.str63234, %rcx
	movq	%rcx, 24224(%rsp)       # 8-byte Spill
	leaq	.L.str64235, %rcx
	movq	%rcx, 24216(%rsp)       # 8-byte Spill
	leaq	25560(%rsp), %rcx
	movq	%rcx, 24208(%rsp)       # 8-byte Spill
	leaq	.L.str61232, %rcx
	movq	%rcx, 24200(%rsp)       # 8-byte Spill
	leaq	.L.str62233, %rcx
	movq	%rcx, 24192(%rsp)       # 8-byte Spill
	leaq	.L.str58229, %rcx
	movq	%rcx, 24184(%rsp)       # 8-byte Spill
	leaq	.L.str59230, %rcx
	movq	%rcx, 24176(%rsp)       # 8-byte Spill
	leaq	.L.str60231, %rcx
	movq	%rcx, 24168(%rsp)       # 8-byte Spill
	leaq	.L.str56227, %rcx
	movq	%rcx, 24160(%rsp)       # 8-byte Spill
	leaq	.L.str57228, %rcx
	movq	%rcx, 24152(%rsp)       # 8-byte Spill
	leaq	25564(%rsp), %rcx
	movq	%rcx, 24144(%rsp)       # 8-byte Spill
	leaq	.L.str54225, %rcx
	movq	%rcx, 24136(%rsp)       # 8-byte Spill
	leaq	.L.str55226, %rcx
	movq	%rcx, 24128(%rsp)       # 8-byte Spill
	leaq	.L.str51222, %rcx
	movq	%rcx, 24120(%rsp)       # 8-byte Spill
	leaq	.L.str52223, %rcx
	movq	%rcx, 24112(%rsp)       # 8-byte Spill
	leaq	.L.str53224, %rcx
	movq	%rcx, 24104(%rsp)       # 8-byte Spill
	leaq	.L.str49220, %rcx
	movq	%rcx, 24096(%rsp)       # 8-byte Spill
	leaq	.L.str50221, %rcx
	movq	%rcx, 24088(%rsp)       # 8-byte Spill
	leaq	.L.str47218, %rcx
	movq	%rcx, 24080(%rsp)       # 8-byte Spill
	leaq	.L.str48219, %rcx
	movq	%rcx, 24072(%rsp)       # 8-byte Spill
	leaq	.L.str44215, %rcx
	movq	%rcx, 24064(%rsp)       # 8-byte Spill
	leaq	.L.str45216, %rcx
	movq	%rcx, 24056(%rsp)       # 8-byte Spill
	leaq	.L.str46217, %rcx
	movq	%rcx, 24048(%rsp)       # 8-byte Spill
	movq	24264(%rsp), %rcx       # 8-byte Reload
	movl	%edi, 24044(%rsp)       # 4-byte Spill
	movq	%rcx, %rdi
	movq	24064(%rsp), %rcx       # 8-byte Reload
	movq	%rsi, 24032(%rsp)       # 8-byte Spill
	movq	%rcx, %rsi
	movq	24056(%rsp), %rcx       # 8-byte Reload
	movl	%edx, 24028(%rsp)       # 4-byte Spill
	movq	%rcx, %rdx
	movq	24048(%rsp), %rcx       # 8-byte Reload
	movq	%r8, 24016(%rsp)        # 8-byte Spill
	movq	24232(%rsp), %r8        # 8-byte Reload
	movq	%r9, 24008(%rsp)        # 8-byte Spill
	movl	%eax, %r9d
	movl	$1, (%rsp)
	movq	%r13, 24000(%rsp)       # 8-byte Spill
	movl	%ebp, 23996(%rsp)       # 4-byte Spill
	movl	%eax, 23992(%rsp)       # 4-byte Spill
	vmovss	%xmm0, 23988(%rsp)      # 4-byte Spill
	movq	%r15, 23976(%rsp)       # 8-byte Spill
	movq	%r12, 23968(%rsp)       # 8-byte Spill
	movq	%r14, 23960(%rsp)       # 8-byte Spill
	movq	%rbx, 23952(%rsp)       # 8-byte Spill
	movq	%r10, 23944(%rsp)       # 8-byte Spill
	movq	%r11, 23936(%rsp)       # 8-byte Spill
	callq	trace_logger_log0
	movq	24016(%rsp), %rdi       # 8-byte Reload
	movq	24288(%rsp), %rsi       # 8-byte Reload
	movq	24016(%rsp), %rdx       # 8-byte Reload
	movq	24520(%rsp), %rcx       # 8-byte Reload
	movq	24080(%rsp), %r8        # 8-byte Reload
	movq	24520(%rsp), %r9        # 8-byte Reload
	movq	24072(%rsp), %r10       # 8-byte Reload
	movq	%r10, (%rsp)
	callq	trace_logger_log_int
	movq	24000(%rsp), %rdi       # 8-byte Reload
	movq	24512(%rsp), %rsi       # 8-byte Reload
	movq	24352(%rsp), %rdx       # 8-byte Reload
	movq	24016(%rsp), %rcx       # 8-byte Reload
	movq	24096(%rsp), %r8        # 8-byte Reload
	movq	24520(%rsp), %r9        # 8-byte Reload
	movq	24088(%rsp), %r10       # 8-byte Reload
	movq	%r10, (%rsp)
	callq	trace_logger_log_int
	movq	24264(%rsp), %rdi       # 8-byte Reload
	movq	24120(%rsp), %rsi       # 8-byte Reload
	movq	24112(%rsp), %rdx       # 8-byte Reload
	movq	24104(%rsp), %rcx       # 8-byte Reload
	movq	24232(%rsp), %r8        # 8-byte Reload
	movl	23992(%rsp), %r9d       # 4-byte Reload
	movl	$1, (%rsp)
	callq	trace_logger_log0
	movq	24016(%rsp), %rdi       # 8-byte Reload
	movq	24288(%rsp), %rsi       # 8-byte Reload
	movq	24016(%rsp), %rdx       # 8-byte Reload
	movq	24520(%rsp), %rcx       # 8-byte Reload
	movq	24136(%rsp), %r8        # 8-byte Reload
	movq	24520(%rsp), %r9        # 8-byte Reload
	movq	24128(%rsp), %r10       # 8-byte Reload
	movq	%r10, (%rsp)
	callq	trace_logger_log_int
	movq	24000(%rsp), %rdi       # 8-byte Reload
	movq	24512(%rsp), %rsi       # 8-byte Reload
	movq	24144(%rsp), %rdx       # 8-byte Reload
	movq	24016(%rsp), %rcx       # 8-byte Reload
	movq	24160(%rsp), %r8        # 8-byte Reload
	movq	24520(%rsp), %r9        # 8-byte Reload
	movq	24152(%rsp), %r10       # 8-byte Reload
	movq	%r10, (%rsp)
	callq	trace_logger_log_int
	movq	24264(%rsp), %rdi       # 8-byte Reload
	movq	24184(%rsp), %rsi       # 8-byte Reload
	movq	24176(%rsp), %rdx       # 8-byte Reload
	movq	24168(%rsp), %rcx       # 8-byte Reload
	movq	24232(%rsp), %r8        # 8-byte Reload
	movl	23992(%rsp), %r9d       # 4-byte Reload
	movl	$1, (%rsp)
	callq	trace_logger_log0
	movq	24016(%rsp), %rdi       # 8-byte Reload
	movq	24288(%rsp), %rsi       # 8-byte Reload
	movq	24016(%rsp), %rdx       # 8-byte Reload
	movq	24520(%rsp), %rcx       # 8-byte Reload
	movq	24200(%rsp), %r8        # 8-byte Reload
	movq	24520(%rsp), %r9        # 8-byte Reload
	movq	24192(%rsp), %r10       # 8-byte Reload
	movq	%r10, (%rsp)
	callq	trace_logger_log_int
	movq	24000(%rsp), %rdi       # 8-byte Reload
	movq	24512(%rsp), %rsi       # 8-byte Reload
	movq	24208(%rsp), %rdx       # 8-byte Reload
	movq	24016(%rsp), %rcx       # 8-byte Reload
	movq	24224(%rsp), %r8        # 8-byte Reload
	movq	24520(%rsp), %r9        # 8-byte Reload
	movq	24216(%rsp), %r10       # 8-byte Reload
	movq	%r10, (%rsp)
	callq	trace_logger_log_int
	movq	24264(%rsp), %rdi       # 8-byte Reload
	movq	24256(%rsp), %rsi       # 8-byte Reload
	movq	24248(%rsp), %rdx       # 8-byte Reload
	movq	24240(%rsp), %rcx       # 8-byte Reload
	movq	24232(%rsp), %r8        # 8-byte Reload
	movl	23992(%rsp), %r9d       # 4-byte Reload
	movl	$1, (%rsp)
	callq	trace_logger_log0
	movq	24016(%rsp), %rdi       # 8-byte Reload
	movq	24288(%rsp), %rsi       # 8-byte Reload
	movq	24016(%rsp), %rdx       # 8-byte Reload
	movq	24520(%rsp), %rcx       # 8-byte Reload
	movq	24280(%rsp), %r8        # 8-byte Reload
	movq	24520(%rsp), %r9        # 8-byte Reload
	movq	24272(%rsp), %r10       # 8-byte Reload
	movq	%r10, (%rsp)
	callq	trace_logger_log_int
	.loc	3 97 0 prologue_end     # kmeans.c:97:0
.Ltmp80:
	movq	24000(%rsp), %rdi       # 8-byte Reload
	movq	24512(%rsp), %rsi       # 8-byte Reload
	movq	24488(%rsp), %rdx       # 8-byte Reload
	movq	24016(%rsp), %rcx       # 8-byte Reload
	movq	24304(%rsp), %r8        # 8-byte Reload
	movq	24520(%rsp), %r9        # 8-byte Reload
	movq	24296(%rsp), %r10       # 8-byte Reload
	movq	%r10, (%rsp)
	callq	trace_logger_log_int
	#DEBUG_VALUE: main:argc <- [RSP+24044]
	#DEBUG_VALUE: main:argv <- [RSP+24032]
.Ltmp81:
	#DEBUG_VALUE: main:nclusters <- 5
	#DEBUG_VALUE: main:filename <- [RSP+24520]
	#DEBUG_VALUE: main:cluster_centres <- [RSP+24352]
	.loc	3 105 0                 # kmeans.c:105:0
	movq	24344(%rsp), %rdi       # 8-byte Reload
	movq	24336(%rsp), %rsi       # 8-byte Reload
	movq	24328(%rsp), %rdx       # 8-byte Reload
	movq	24320(%rsp), %rcx       # 8-byte Reload
	movq	24312(%rsp), %r8        # 8-byte Reload
	movl	23992(%rsp), %r9d       # 4-byte Reload
	movl	$1, (%rsp)
	callq	trace_logger_log0
	movq	23968(%rsp), %rdi       # 8-byte Reload
	movq	24512(%rsp), %rsi       # 8-byte Reload
	movq	24352(%rsp), %rdx       # 8-byte Reload
	movq	24016(%rsp), %rcx       # 8-byte Reload
	movq	24368(%rsp), %r8        # 8-byte Reload
	movq	24520(%rsp), %r9        # 8-byte Reload
	movq	24360(%rsp), %r10       # 8-byte Reload
	movq	%r10, (%rsp)
	callq	trace_logger_log_int
	movq	24016(%rsp), %rdi       # 8-byte Reload
	movq	24512(%rsp), %rsi       # 8-byte Reload
	movq	24520(%rsp), %rdx       # 8-byte Reload
	movq	24520(%rsp), %rcx       # 8-byte Reload
	movq	24384(%rsp), %r8        # 8-byte Reload
	movq	24520(%rsp), %r9        # 8-byte Reload
	movq	24376(%rsp), %r10       # 8-byte Reload
	movq	%r10, (%rsp)
	callq	trace_logger_log_int
	movq	$0, 25568(%rsp)
	.loc	3 110 0                 # kmeans.c:110:0
	movq	24424(%rsp), %rdi       # 8-byte Reload
	movq	24416(%rsp), %rsi       # 8-byte Reload
	movq	24408(%rsp), %rdx       # 8-byte Reload
	movq	24400(%rsp), %rcx       # 8-byte Reload
	movq	24392(%rsp), %r8        # 8-byte Reload
	movl	23992(%rsp), %r9d       # 4-byte Reload
	movl	$1, (%rsp)
	callq	trace_logger_log0
	movq	24448(%rsp), %rdi       # 8-byte Reload
	movq	24512(%rsp), %rsi       # 8-byte Reload
	movq	24520(%rsp), %rdx       # 8-byte Reload
	movq	24520(%rsp), %rcx       # 8-byte Reload
	movq	24440(%rsp), %r8        # 8-byte Reload
	movq	24520(%rsp), %r9        # 8-byte Reload
	movq	24432(%rsp), %r10       # 8-byte Reload
	movq	%r10, (%rsp)
	callq	trace_logger_log_int
	movq	23968(%rsp), %rdi       # 8-byte Reload
	movq	24512(%rsp), %rsi       # 8-byte Reload
	movq	24520(%rsp), %rdx       # 8-byte Reload
	movq	24520(%rsp), %rcx       # 8-byte Reload
	movq	24464(%rsp), %r8        # 8-byte Reload
	movq	24520(%rsp), %r9        # 8-byte Reload
	movq	24456(%rsp), %r10       # 8-byte Reload
	movq	%r10, (%rsp)
	callq	trace_logger_log_int
	movq	24016(%rsp), %rdi       # 8-byte Reload
	movq	24512(%rsp), %rsi       # 8-byte Reload
	movq	24488(%rsp), %rdx       # 8-byte Reload
	movq	24016(%rsp), %rcx       # 8-byte Reload
	movq	24480(%rsp), %r8        # 8-byte Reload
	movq	24520(%rsp), %r9        # 8-byte Reload
	movq	24472(%rsp), %r10       # 8-byte Reload
	movq	%r10, (%rsp)
	callq	trace_logger_log_int
	movq	24000(%rsp), %rdi       # 8-byte Reload
	movq	24512(%rsp), %rsi       # 8-byte Reload
	movq	24488(%rsp), %rdx       # 8-byte Reload
	movq	24016(%rsp), %rcx       # 8-byte Reload
	movq	24504(%rsp), %r8        # 8-byte Reload
	movq	24520(%rsp), %r9        # 8-byte Reload
	movq	24496(%rsp), %r10       # 8-byte Reload
	movq	%r10, (%rsp)
	callq	trace_logger_log_int
.Ltmp82:
	#DEBUG_VALUE: main:isBinaryFile <- 0
	#DEBUG_VALUE: main:threshold <- 1.000000e-03
	.loc	3 118 0                 # kmeans.c:118:0
	movq	23936(%rsp), %rdi       # 8-byte Reload
	movq	23952(%rsp), %rsi       # 8-byte Reload
	movq	23960(%rsp), %rdx       # 8-byte Reload
	movq	23976(%rsp), %rcx       # 8-byte Reload
	movq	23968(%rsp), %r8        # 8-byte Reload
	movl	23992(%rsp), %r9d       # 4-byte Reload
	movl	$1, (%rsp)
	callq	trace_logger_log0
	movq	24016(%rsp), %rdi       # 8-byte Reload
	movq	24520(%rsp), %rsi       # 8-byte Reload
	movq	24520(%rsp), %rdx       # 8-byte Reload
	movq	24016(%rsp), %rcx       # 8-byte Reload
	movq	24008(%rsp), %r8        # 8-byte Reload
	movq	24520(%rsp), %r9        # 8-byte Reload
	movq	23944(%rsp), %r10       # 8-byte Reload
	movq	%r10, (%rsp)
	callq	trace_logger_log_int
	movl	23992(%rsp), %eax       # 4-byte Reload
	vmovss	23988(%rsp), %xmm0      # 4-byte Reload
	movq	24520(%rsp), %rcx       # 8-byte Reload
	movl	24028(%rsp), %ebp       # 4-byte Reload
	movl	%eax, 23932(%rsp)       # 4-byte Spill
	vmovss	%xmm0, 23928(%rsp)      # 4-byte Spill
	movq	%rcx, 23920(%rsp)       # 8-byte Spill
	movl	%ebp, 23916(%rsp)       # 4-byte Spill
.Ltmp83:
.LBB2_1:                                # %.outer19
                                        # =>This Loop Header: Depth=1
                                        #     Child Loop BB2_2 Depth 2
                                        #       Child Loop BB2_3 Depth 3
                                        #         Child Loop BB2_4 Depth 4
	movl	23916(%rsp), %eax       # 4-byte Reload
	movq	23920(%rsp), %rcx       # 8-byte Reload
	vmovss	23928(%rsp), %xmm0      # 4-byte Reload
	movl	23932(%rsp), %edx       # 4-byte Reload
	movabsq	$1, %rsi
	movabsq	$0, %rdi
	leaq	.L.str134305, %r8
	leaq	.L.str135306, %r9
	movabsq	$-1, %r10
	leaq	.L.str131302, %r11
	leaq	.L.str132303, %rbx
	leaq	.L.str133304, %r14
	movabsq	$2, %r15
	movl	$0, %ebp
	movl	$1, %r12d
	movabsq	$19134, %r13            # imm = 0x4ABE
	movq	%rcx, 23904(%rsp)       # 8-byte Spill
	movabsq	$32, %rcx
	movq	%rcx, 23896(%rsp)       # 8-byte Spill
	leaq	.L.str129300, %rcx
	movq	%rcx, 23888(%rsp)       # 8-byte Spill
	leaq	.L.str130301, %rcx
	movq	%rcx, 23880(%rsp)       # 8-byte Spill
	movabsq	$5, %rcx
	movq	%rcx, 23872(%rsp)       # 8-byte Spill
	leaq	.L.str127298, %rcx
	movq	%rcx, 23864(%rsp)       # 8-byte Spill
	leaq	.L.str128299, %rcx
	movq	%rcx, 23856(%rsp)       # 8-byte Spill
	leaq	.L.str125296, %rcx
	movq	%rcx, 23848(%rsp)       # 8-byte Spill
	leaq	.L.str126297, %rcx
	movq	%rcx, 23840(%rsp)       # 8-byte Spill
	leaq	.L.str122293, %rcx
	movq	%rcx, 23832(%rsp)       # 8-byte Spill
	leaq	.L.str123294, %rcx
	movq	%rcx, 23824(%rsp)       # 8-byte Spill
	leaq	.L.str124295, %rcx
	movq	%rcx, 23816(%rsp)       # 8-byte Spill
	movabsq	$48, %rcx
	movq	%rcx, 23808(%rsp)       # 8-byte Spill
	movabsq	$64, %rcx
	movq	%rcx, 23800(%rsp)       # 8-byte Spill
	leaq	.L.str120291, %rcx
	movq	%rcx, 23792(%rsp)       # 8-byte Spill
	leaq	.L.str121292, %rcx
	movq	%rcx, 23784(%rsp)       # 8-byte Spill
	leaq	.L.str118289, %rcx
	movq	%rcx, 23776(%rsp)       # 8-byte Spill
	leaq	.L.str119290, %rcx
	movq	%rcx, 23768(%rsp)       # 8-byte Spill
	leaq	.L.str116287, %rcx
	movq	%rcx, 23760(%rsp)       # 8-byte Spill
	leaq	.L.str117288, %rcx
	movq	%rcx, 23752(%rsp)       # 8-byte Spill
	leaq	.L.str113284, %rcx
	movq	%rcx, 23744(%rsp)       # 8-byte Spill
	leaq	.L.str114285, %rcx
	movq	%rcx, 23736(%rsp)       # 8-byte Spill
	leaq	.L.str115286, %rcx
	movq	%rcx, 23728(%rsp)       # 8-byte Spill
	leaq	.L.str111282, %rcx
	movq	%rcx, 23720(%rsp)       # 8-byte Spill
	leaq	.L.str112283, %rcx
	vmovsd	.LCPI2_1, %xmm1
	movq	%rcx, 23712(%rsp)       # 8-byte Spill
	leaq	.L.str109280, %rcx
	movq	%rcx, 23704(%rsp)       # 8-byte Spill
	leaq	.L.str110281, %rcx
	movq	%rcx, 23696(%rsp)       # 8-byte Spill
	leaq	.L.str107278, %rcx
	movq	%rcx, 23688(%rsp)       # 8-byte Spill
	leaq	.L.str108279, %rcx
	movq	%rcx, 23680(%rsp)       # 8-byte Spill
	leaq	.L.str104275, %rcx
	movq	%rcx, 23672(%rsp)       # 8-byte Spill
	leaq	.L.str105276, %rcx
	movq	%rcx, 23664(%rsp)       # 8-byte Spill
	leaq	.L.str106277, %rcx
	movq	%rcx, 23656(%rsp)       # 8-byte Spill
	leaq	.L.str102273, %rcx
	movq	%rcx, 23648(%rsp)       # 8-byte Spill
	leaq	.L.str103274, %rcx
	movq	%rcx, 23640(%rsp)       # 8-byte Spill
	leaq	.L.str100271, %rcx
	movq	%rcx, 23632(%rsp)       # 8-byte Spill
	leaq	.L.str101272, %rcx
	movq	%rcx, 23624(%rsp)       # 8-byte Spill
	leaq	.L.str98269, %rcx
	movq	%rcx, 23616(%rsp)       # 8-byte Spill
	leaq	.L.str99270, %rcx
	movq	%rcx, 23608(%rsp)       # 8-byte Spill
	leaq	.L.str95266, %rcx
	movq	%rcx, 23600(%rsp)       # 8-byte Spill
	leaq	.L.str96267, %rcx
	movq	%rcx, 23592(%rsp)       # 8-byte Spill
	leaq	.L.str97268, %rcx
	movq	%rdi, 23584(%rsp)       # 8-byte Spill
	movq	%r10, %rdi
	movq	%rcx, 23576(%rsp)       # 8-byte Spill
	movq	23600(%rsp), %rcx       # 8-byte Reload
	movq	%rsi, 23568(%rsp)       # 8-byte Spill
	movq	%rcx, %rsi
	movq	23592(%rsp), %rcx       # 8-byte Reload
	movl	%edx, 23564(%rsp)       # 4-byte Spill
	movq	%rcx, %rdx
	movq	23576(%rsp), %rcx       # 8-byte Reload
	movq	%r8, 23552(%rsp)        # 8-byte Spill
	movq	23808(%rsp), %r8        # 8-byte Reload
	movq	%r9, 23544(%rsp)        # 8-byte Spill
	movl	%ebp, %r9d
	movl	$1, (%rsp)
	movl	%eax, 23540(%rsp)       # 4-byte Spill
	movl	%ebp, 23536(%rsp)       # 4-byte Spill
	vmovss	%xmm0, 23532(%rsp)      # 4-byte Spill
	movl	%r12d, 23528(%rsp)      # 4-byte Spill
	movq	%r13, 23520(%rsp)       # 8-byte Spill
	vmovsd	%xmm1, 23512(%rsp)      # 8-byte Spill
	movq	%r15, 23504(%rsp)       # 8-byte Spill
	movq	%r14, 23496(%rsp)       # 8-byte Spill
	movq	%r10, 23488(%rsp)       # 8-byte Spill
	movq	%r11, 23480(%rsp)       # 8-byte Spill
	movq	%rbx, 23472(%rsp)       # 8-byte Spill
	callq	trace_logger_log0
	movq	23504(%rsp), %rdi       # 8-byte Reload
	movq	23896(%rsp), %rsi       # 8-byte Reload
	movq	23568(%rsp), %rdx       # 8-byte Reload
	movq	23584(%rsp), %rcx       # 8-byte Reload
	movq	23616(%rsp), %r8        # 8-byte Reload
	movq	23568(%rsp), %r9        # 8-byte Reload
	movq	23608(%rsp), %r10       # 8-byte Reload
	movq	%r10, (%rsp)
	callq	trace_logger_log_int
	movq	23568(%rsp), %rdi       # 8-byte Reload
	movq	23896(%rsp), %rsi       # 8-byte Reload
	movq	23584(%rsp), %rdx       # 8-byte Reload
	movq	23584(%rsp), %rcx       # 8-byte Reload
	movq	23632(%rsp), %r8        # 8-byte Reload
	movq	23568(%rsp), %r9        # 8-byte Reload
	movq	23624(%rsp), %r10       # 8-byte Reload
	movq	%r10, (%rsp)
	callq	trace_logger_log_int
	movl	23564(%rsp), %eax       # 4-byte Reload
	movl	%eax, %ebp
	movl	%ebp, %edx
	movq	23520(%rsp), %rdi       # 8-byte Reload
	movq	23896(%rsp), %rsi       # 8-byte Reload
	movq	23568(%rsp), %rcx       # 8-byte Reload
	movq	23648(%rsp), %r8        # 8-byte Reload
	movq	23584(%rsp), %r9        # 8-byte Reload
	movq	23640(%rsp), %r10       # 8-byte Reload
	movq	%r10, (%rsp)
	callq	trace_logger_log_int
	movq	23488(%rsp), %rdi       # 8-byte Reload
	movq	23672(%rsp), %rsi       # 8-byte Reload
	movq	23664(%rsp), %rdx       # 8-byte Reload
	movq	23656(%rsp), %rcx       # 8-byte Reload
	movq	23808(%rsp), %r8        # 8-byte Reload
	movl	23536(%rsp), %r9d       # 4-byte Reload
	movl	$1, (%rsp)
	callq	trace_logger_log0
	movq	23504(%rsp), %rdi       # 8-byte Reload
	movq	23896(%rsp), %rsi       # 8-byte Reload
	movq	23584(%rsp), %rdx       # 8-byte Reload
	movq	23568(%rsp), %rcx       # 8-byte Reload
	movq	23688(%rsp), %r8        # 8-byte Reload
	movq	23568(%rsp), %r9        # 8-byte Reload
	movq	23680(%rsp), %r10       # 8-byte Reload
	movq	%r10, (%rsp)
	callq	trace_logger_log_int
	movq	23568(%rsp), %rdi       # 8-byte Reload
	movq	23896(%rsp), %rsi       # 8-byte Reload
	vmovsd	23512(%rsp), %xmm0      # 8-byte Reload
	movq	23584(%rsp), %rdx       # 8-byte Reload
	movq	23704(%rsp), %rcx       # 8-byte Reload
	movq	23568(%rsp), %r8        # 8-byte Reload
	movq	23696(%rsp), %r9        # 8-byte Reload
	callq	trace_logger_log_double
	vmovss	23532(%rsp), %xmm0      # 4-byte Reload
	cvtss2sd	%xmm0, %xmm0
	movq	23520(%rsp), %rdi       # 8-byte Reload
	movq	23896(%rsp), %rsi       # 8-byte Reload
	movq	23568(%rsp), %rdx       # 8-byte Reload
	movq	23720(%rsp), %rcx       # 8-byte Reload
	movq	23584(%rsp), %r8        # 8-byte Reload
	movq	23712(%rsp), %r9        # 8-byte Reload
	callq	trace_logger_log_double
	movq	23488(%rsp), %rdi       # 8-byte Reload
	movq	23744(%rsp), %rsi       # 8-byte Reload
	movq	23736(%rsp), %rdx       # 8-byte Reload
	movq	23728(%rsp), %rcx       # 8-byte Reload
	movq	23808(%rsp), %r8        # 8-byte Reload
	movl	23536(%rsp), %r9d       # 4-byte Reload
	movl	$1, (%rsp)
	callq	trace_logger_log0
	movq	23504(%rsp), %rdi       # 8-byte Reload
	movq	23800(%rsp), %rsi       # 8-byte Reload
	movq	23584(%rsp), %rdx       # 8-byte Reload
	movq	23568(%rsp), %rcx       # 8-byte Reload
	movq	23760(%rsp), %r8        # 8-byte Reload
	movq	23568(%rsp), %r9        # 8-byte Reload
	movq	23752(%rsp), %r10       # 8-byte Reload
	movq	%r10, (%rsp)
	callq	trace_logger_log_int
	movq	23568(%rsp), %rdi       # 8-byte Reload
	movq	23800(%rsp), %rsi       # 8-byte Reload
	movq	23584(%rsp), %rdx       # 8-byte Reload
	movq	23584(%rsp), %rcx       # 8-byte Reload
	movq	23776(%rsp), %r8        # 8-byte Reload
	movq	23568(%rsp), %r9        # 8-byte Reload
	movq	23768(%rsp), %r10       # 8-byte Reload
	movq	%r10, (%rsp)
	callq	trace_logger_log_int
	movq	23520(%rsp), %rdi       # 8-byte Reload
	movq	23800(%rsp), %rsi       # 8-byte Reload
	movq	23904(%rsp), %rdx       # 8-byte Reload
	movq	23568(%rsp), %rcx       # 8-byte Reload
	movq	23792(%rsp), %r8        # 8-byte Reload
	movq	23584(%rsp), %r9        # 8-byte Reload
	movq	23784(%rsp), %r10       # 8-byte Reload
	movq	%r10, (%rsp)
	callq	trace_logger_log_int
	movq	23488(%rsp), %rdi       # 8-byte Reload
	movq	23832(%rsp), %rsi       # 8-byte Reload
	movq	23824(%rsp), %rdx       # 8-byte Reload
	movq	23816(%rsp), %rcx       # 8-byte Reload
	movq	23808(%rsp), %r8        # 8-byte Reload
	movl	23536(%rsp), %r9d       # 4-byte Reload
	movl	$1, (%rsp)
	callq	trace_logger_log0
	movq	23504(%rsp), %rdi       # 8-byte Reload
	movq	23896(%rsp), %rsi       # 8-byte Reload
	movq	23584(%rsp), %rdx       # 8-byte Reload
	movq	23568(%rsp), %rcx       # 8-byte Reload
	movq	23848(%rsp), %r8        # 8-byte Reload
	movq	23568(%rsp), %r9        # 8-byte Reload
	movq	23840(%rsp), %r10       # 8-byte Reload
	movq	%r10, (%rsp)
	callq	trace_logger_log_int
	movq	23568(%rsp), %rdi       # 8-byte Reload
	movq	23896(%rsp), %rsi       # 8-byte Reload
	movq	23872(%rsp), %rdx       # 8-byte Reload
	movq	23584(%rsp), %rcx       # 8-byte Reload
	movq	23864(%rsp), %r8        # 8-byte Reload
	movq	23568(%rsp), %r9        # 8-byte Reload
	movq	23856(%rsp), %r10       # 8-byte Reload
	movq	%r10, (%rsp)
	callq	trace_logger_log_int
	movl	23540(%rsp), %eax       # 4-byte Reload
	movl	%eax, %ebp
	movl	%ebp, %edx
	movq	23520(%rsp), %rdi       # 8-byte Reload
	movq	23896(%rsp), %rsi       # 8-byte Reload
	movq	23568(%rsp), %rcx       # 8-byte Reload
	movq	23888(%rsp), %r8        # 8-byte Reload
	movq	23584(%rsp), %r9        # 8-byte Reload
	movq	23880(%rsp), %r10       # 8-byte Reload
	movq	%r10, (%rsp)
	callq	trace_logger_log_int
	movq	23488(%rsp), %rdi       # 8-byte Reload
	movq	23480(%rsp), %rsi       # 8-byte Reload
	movq	23472(%rsp), %rdx       # 8-byte Reload
	movq	23496(%rsp), %rcx       # 8-byte Reload
	movq	23504(%rsp), %r8        # 8-byte Reload
	movl	23536(%rsp), %r9d       # 4-byte Reload
	movl	$1, (%rsp)
	callq	trace_logger_log0
	movq	23568(%rsp), %rdi       # 8-byte Reload
	movq	23584(%rsp), %rsi       # 8-byte Reload
	movq	23584(%rsp), %rdx       # 8-byte Reload
	movq	23568(%rsp), %rcx       # 8-byte Reload
	movq	23552(%rsp), %r8        # 8-byte Reload
	movq	23584(%rsp), %r9        # 8-byte Reload
	movq	23544(%rsp), %r10       # 8-byte Reload
	movq	%r10, (%rsp)
	callq	trace_logger_log_int
	vmovss	23532(%rsp), %xmm0      # 4-byte Reload
	movq	23904(%rsp), %rcx       # 8-byte Reload
	movl	23540(%rsp), %eax       # 4-byte Reload
	vmovss	%xmm0, 23468(%rsp)      # 4-byte Spill
	movq	%rcx, 23456(%rsp)       # 8-byte Spill
	movl	%eax, 23452(%rsp)       # 4-byte Spill
.LBB2_2:                                # %.outer20
                                        #   Parent Loop BB2_1 Depth=1
                                        # =>  This Loop Header: Depth=2
                                        #       Child Loop BB2_3 Depth 3
                                        #         Child Loop BB2_4 Depth 4
	movl	23452(%rsp), %eax       # 4-byte Reload
	movq	23456(%rsp), %rcx       # 8-byte Reload
	vmovss	23468(%rsp), %xmm0      # 4-byte Reload
	movabsq	$1, %rdx
	movabsq	$0, %rsi
	leaq	.L.str166337, %r8
	leaq	.L.str167338, %rdi
	movabsq	$-1, %r9
	leaq	.L.str163334, %r10
	leaq	.L.str164335, %r11
	leaq	.L.str165336, %rbx
	movabsq	$2, %r14
	movl	$0, %ebp
	movl	$1, %r15d
	movabsq	$19134, %r12            # imm = 0x4ABE
	movabsq	$32, %r13
	movq	%rcx, 23440(%rsp)       # 8-byte Spill
	leaq	.L.str161332, %rcx
	movq	%rcx, 23432(%rsp)       # 8-byte Spill
	leaq	.L.str162333, %rcx
	movq	%rcx, 23424(%rsp)       # 8-byte Spill
	leaq	.L.str159330, %rcx
	movq	%rcx, 23416(%rsp)       # 8-byte Spill
	leaq	.L.str160331, %rcx
	movq	%rcx, 23408(%rsp)       # 8-byte Spill
	leaq	.L.str157328, %rcx
	movq	%rcx, 23400(%rsp)       # 8-byte Spill
	leaq	.L.str158329, %rcx
	movq	%rcx, 23392(%rsp)       # 8-byte Spill
	leaq	.L.str154325, %rcx
	movq	%rcx, 23384(%rsp)       # 8-byte Spill
	leaq	.L.str155326, %rcx
	movq	%rcx, 23376(%rsp)       # 8-byte Spill
	leaq	.L.str156327, %rcx
	movq	%rcx, 23368(%rsp)       # 8-byte Spill
	movabsq	$48, %rcx
	movq	%rcx, 23360(%rsp)       # 8-byte Spill
	movabsq	$64, %rcx
	movq	%rcx, 23352(%rsp)       # 8-byte Spill
	leaq	.L.str152323, %rcx
	movq	%rcx, 23344(%rsp)       # 8-byte Spill
	leaq	.L.str153324, %rcx
	movq	%rcx, 23336(%rsp)       # 8-byte Spill
	leaq	.L.str150321, %rcx
	movq	%rcx, 23328(%rsp)       # 8-byte Spill
	leaq	.L.str151322, %rcx
	movq	%rcx, 23320(%rsp)       # 8-byte Spill
	leaq	.L.str148319, %rcx
	movq	%rcx, 23312(%rsp)       # 8-byte Spill
	leaq	.L.str149320, %rcx
	movq	%rcx, 23304(%rsp)       # 8-byte Spill
	leaq	.L.str145316, %rcx
	movq	%rcx, 23296(%rsp)       # 8-byte Spill
	leaq	.L.str146317, %rcx
	movq	%rcx, 23288(%rsp)       # 8-byte Spill
	leaq	.L.str147318, %rcx
	movq	%rcx, 23280(%rsp)       # 8-byte Spill
	leaq	.L.str143314, %rcx
	movq	%rcx, 23272(%rsp)       # 8-byte Spill
	leaq	.L.str144315, %rcx
	movq	%rcx, 23264(%rsp)       # 8-byte Spill
	leaq	.L.str141312, %rcx
	movq	%rcx, 23256(%rsp)       # 8-byte Spill
	leaq	.L.str142313, %rcx
	movq	%rcx, 23248(%rsp)       # 8-byte Spill
	leaq	.L.str139310, %rcx
	movq	%rcx, 23240(%rsp)       # 8-byte Spill
	leaq	.L.str140311, %rcx
	movq	%rcx, 23232(%rsp)       # 8-byte Spill
	leaq	.L.str136307, %rcx
	movq	%rcx, 23224(%rsp)       # 8-byte Spill
	leaq	.L.str137308, %rcx
	movq	%rcx, 23216(%rsp)       # 8-byte Spill
	leaq	.L.str138309, %rcx
	movq	%rdi, 23208(%rsp)       # 8-byte Spill
	movq	%r9, %rdi
	movq	%rcx, 23200(%rsp)       # 8-byte Spill
	movq	23224(%rsp), %rcx       # 8-byte Reload
	movq	%rsi, 23192(%rsp)       # 8-byte Spill
	movq	%rcx, %rsi
	movq	23216(%rsp), %rcx       # 8-byte Reload
	movq	%rdx, 23184(%rsp)       # 8-byte Spill
	movq	%rcx, %rdx
	movq	23200(%rsp), %rcx       # 8-byte Reload
	movq	%r8, 23176(%rsp)        # 8-byte Spill
	movq	23360(%rsp), %r8        # 8-byte Reload
	movq	%r9, 23168(%rsp)        # 8-byte Spill
	movl	%ebp, %r9d
	movl	$1, (%rsp)
	movl	%eax, 23164(%rsp)       # 4-byte Spill
	movl	%ebp, 23160(%rsp)       # 4-byte Spill
	vmovss	%xmm0, 23156(%rsp)      # 4-byte Spill
	movl	%r15d, 23152(%rsp)      # 4-byte Spill
	movq	%r12, 23144(%rsp)       # 8-byte Spill
	movq	%r14, 23136(%rsp)       # 8-byte Spill
	movq	%r13, 23128(%rsp)       # 8-byte Spill
	movq	%rbx, 23120(%rsp)       # 8-byte Spill
	movq	%r10, 23112(%rsp)       # 8-byte Spill
	movq	%r11, 23104(%rsp)       # 8-byte Spill
	callq	trace_logger_log0
	movq	23136(%rsp), %rdi       # 8-byte Reload
	movq	23128(%rsp), %rsi       # 8-byte Reload
	movq	23192(%rsp), %rdx       # 8-byte Reload
	movq	23184(%rsp), %rcx       # 8-byte Reload
	movq	23240(%rsp), %r8        # 8-byte Reload
	movq	23184(%rsp), %r9        # 8-byte Reload
	movq	23232(%rsp), %r10       # 8-byte Reload
	movq	%r10, (%rsp)
	callq	trace_logger_log_int
	movq	23184(%rsp), %rdi       # 8-byte Reload
	movq	23128(%rsp), %rsi       # 8-byte Reload
	movq	23192(%rsp), %rdx       # 8-byte Reload
	movq	23184(%rsp), %rcx       # 8-byte Reload
	movq	23256(%rsp), %r8        # 8-byte Reload
	movq	23184(%rsp), %r9        # 8-byte Reload
	movq	23248(%rsp), %r10       # 8-byte Reload
	movq	%r10, (%rsp)
	callq	trace_logger_log_int
	vmovss	23156(%rsp), %xmm0      # 4-byte Reload
	cvtss2sd	%xmm0, %xmm0
	movq	23144(%rsp), %rdi       # 8-byte Reload
	movq	23128(%rsp), %rsi       # 8-byte Reload
	movq	23184(%rsp), %rdx       # 8-byte Reload
	movq	23272(%rsp), %rcx       # 8-byte Reload
	movq	23192(%rsp), %r8        # 8-byte Reload
	movq	23264(%rsp), %r9        # 8-byte Reload
	callq	trace_logger_log_double
	movq	23168(%rsp), %rdi       # 8-byte Reload
	movq	23296(%rsp), %rsi       # 8-byte Reload
	movq	23288(%rsp), %rdx       # 8-byte Reload
	movq	23280(%rsp), %rcx       # 8-byte Reload
	movq	23360(%rsp), %r8        # 8-byte Reload
	movl	23160(%rsp), %r9d       # 4-byte Reload
	movl	$1, (%rsp)
	callq	trace_logger_log0
	movq	23136(%rsp), %rdi       # 8-byte Reload
	movq	23352(%rsp), %rsi       # 8-byte Reload
	movq	23192(%rsp), %rdx       # 8-byte Reload
	movq	23184(%rsp), %rcx       # 8-byte Reload
	movq	23312(%rsp), %r8        # 8-byte Reload
	movq	23184(%rsp), %r9        # 8-byte Reload
	movq	23304(%rsp), %r10       # 8-byte Reload
	movq	%r10, (%rsp)
	callq	trace_logger_log_int
	movq	23184(%rsp), %rdi       # 8-byte Reload
	movq	23352(%rsp), %rsi       # 8-byte Reload
	movq	23192(%rsp), %rdx       # 8-byte Reload
	movq	23184(%rsp), %rcx       # 8-byte Reload
	movq	23328(%rsp), %r8        # 8-byte Reload
	movq	23184(%rsp), %r9        # 8-byte Reload
	movq	23320(%rsp), %r10       # 8-byte Reload
	movq	%r10, (%rsp)
	callq	trace_logger_log_int
	movq	23144(%rsp), %rdi       # 8-byte Reload
	movq	23352(%rsp), %rsi       # 8-byte Reload
	movq	23440(%rsp), %rdx       # 8-byte Reload
	movq	23184(%rsp), %rcx       # 8-byte Reload
	movq	23344(%rsp), %r8        # 8-byte Reload
	movq	23192(%rsp), %r9        # 8-byte Reload
	movq	23336(%rsp), %r10       # 8-byte Reload
	movq	%r10, (%rsp)
	callq	trace_logger_log_int
	movq	23168(%rsp), %rdi       # 8-byte Reload
	movq	23384(%rsp), %rsi       # 8-byte Reload
	movq	23376(%rsp), %rdx       # 8-byte Reload
	movq	23368(%rsp), %rcx       # 8-byte Reload
	movq	23360(%rsp), %r8        # 8-byte Reload
	movl	23160(%rsp), %r9d       # 4-byte Reload
	movl	$1, (%rsp)
	callq	trace_logger_log0
	movq	23136(%rsp), %rdi       # 8-byte Reload
	movq	23128(%rsp), %rsi       # 8-byte Reload
	movq	23192(%rsp), %rdx       # 8-byte Reload
	movq	23184(%rsp), %rcx       # 8-byte Reload
	movq	23400(%rsp), %r8        # 8-byte Reload
	movq	23184(%rsp), %r9        # 8-byte Reload
	movq	23392(%rsp), %r10       # 8-byte Reload
	movq	%r10, (%rsp)
	callq	trace_logger_log_int
	movq	23184(%rsp), %rdi       # 8-byte Reload
	movq	23128(%rsp), %rsi       # 8-byte Reload
	movq	23192(%rsp), %rdx       # 8-byte Reload
	movq	23184(%rsp), %rcx       # 8-byte Reload
	movq	23416(%rsp), %r8        # 8-byte Reload
	movq	23184(%rsp), %r9        # 8-byte Reload
	movq	23408(%rsp), %r10       # 8-byte Reload
	movq	%r10, (%rsp)
	callq	trace_logger_log_int
	movl	23164(%rsp), %eax       # 4-byte Reload
	movl	%eax, %ebp
	movl	%ebp, %edx
	movq	23144(%rsp), %rdi       # 8-byte Reload
	movq	23128(%rsp), %rsi       # 8-byte Reload
	movq	23184(%rsp), %rcx       # 8-byte Reload
	movq	23432(%rsp), %r8        # 8-byte Reload
	movq	23192(%rsp), %r9        # 8-byte Reload
	movq	23424(%rsp), %r10       # 8-byte Reload
	movq	%r10, (%rsp)
	callq	trace_logger_log_int
	movq	23168(%rsp), %rdi       # 8-byte Reload
	movq	23112(%rsp), %rsi       # 8-byte Reload
	movq	23104(%rsp), %rdx       # 8-byte Reload
	movq	23120(%rsp), %rcx       # 8-byte Reload
	movq	23136(%rsp), %r8        # 8-byte Reload
	movl	23160(%rsp), %r9d       # 4-byte Reload
	movl	$1, (%rsp)
	callq	trace_logger_log0
	movq	23184(%rsp), %rdi       # 8-byte Reload
	movq	23192(%rsp), %rsi       # 8-byte Reload
	movq	23192(%rsp), %rdx       # 8-byte Reload
	movq	23184(%rsp), %rcx       # 8-byte Reload
	movq	23176(%rsp), %r8        # 8-byte Reload
	movq	23192(%rsp), %r9        # 8-byte Reload
	movq	23208(%rsp), %r10       # 8-byte Reload
	movq	%r10, (%rsp)
	callq	trace_logger_log_int
	movq	23440(%rsp), %rcx       # 8-byte Reload
	movl	23164(%rsp), %eax       # 4-byte Reload
	movq	%rcx, 23096(%rsp)       # 8-byte Spill
	movl	%eax, 23092(%rsp)       # 4-byte Spill
.LBB2_3:                                # %.outer24
                                        #   Parent Loop BB2_1 Depth=1
                                        #     Parent Loop BB2_2 Depth=2
                                        # =>    This Loop Header: Depth=3
                                        #         Child Loop BB2_4 Depth 4
	movl	23092(%rsp), %eax       # 4-byte Reload
	movq	23096(%rsp), %rcx       # 8-byte Reload
	movabsq	$1, %rdx
	movabsq	$0, %rsi
	leaq	.L.str189, %r8
	leaq	.L.str190, %rdi
	movabsq	$-1, %r9
	leaq	.L.str186, %r10
	leaq	.L.str187, %r11
	leaq	.L.str188, %rbx
	movabsq	$2, %r14
	movl	$0, %ebp
	movl	$1, %r15d
	movabsq	$19134, %r12            # imm = 0x4ABE
	movabsq	$32, %r13
	movq	%rcx, 23080(%rsp)       # 8-byte Spill
	leaq	.L.str184, %rcx
	movq	%rcx, 23072(%rsp)       # 8-byte Spill
	leaq	.L.str185, %rcx
	movq	%rcx, 23064(%rsp)       # 8-byte Spill
	leaq	.L.str182, %rcx
	movq	%rcx, 23056(%rsp)       # 8-byte Spill
	leaq	.L.str183, %rcx
	movq	%rcx, 23048(%rsp)       # 8-byte Spill
	leaq	.L.str180, %rcx
	movq	%rcx, 23040(%rsp)       # 8-byte Spill
	leaq	.L.str181, %rcx
	movq	%rcx, 23032(%rsp)       # 8-byte Spill
	leaq	.L.str177, %rcx
	movq	%rcx, 23024(%rsp)       # 8-byte Spill
	leaq	.L.str178, %rcx
	movq	%rcx, 23016(%rsp)       # 8-byte Spill
	leaq	.L.str179, %rcx
	movq	%rcx, 23008(%rsp)       # 8-byte Spill
	movabsq	$48, %rcx
	movq	%rcx, 23000(%rsp)       # 8-byte Spill
	movabsq	$64, %rcx
	movq	%rcx, 22992(%rsp)       # 8-byte Spill
	leaq	.L.str175, %rcx
	movq	%rcx, 22984(%rsp)       # 8-byte Spill
	leaq	.L.str176, %rcx
	movq	%rcx, 22976(%rsp)       # 8-byte Spill
	leaq	.L.str173, %rcx
	movq	%rcx, 22968(%rsp)       # 8-byte Spill
	leaq	.L.str174, %rcx
	movq	%rcx, 22960(%rsp)       # 8-byte Spill
	leaq	.L.str171342, %rcx
	movq	%rcx, 22952(%rsp)       # 8-byte Spill
	leaq	.L.str172, %rcx
	movq	%rcx, 22944(%rsp)       # 8-byte Spill
	leaq	.L.str168339, %rcx
	movq	%rcx, 22936(%rsp)       # 8-byte Spill
	leaq	.L.str169340, %rcx
	movq	%rcx, 22928(%rsp)       # 8-byte Spill
	leaq	.L.str170341, %rcx
	movq	%rdi, 22920(%rsp)       # 8-byte Spill
	movq	%r9, %rdi
	movq	%rcx, 22912(%rsp)       # 8-byte Spill
	movq	22936(%rsp), %rcx       # 8-byte Reload
	movq	%rsi, 22904(%rsp)       # 8-byte Spill
	movq	%rcx, %rsi
	movq	22928(%rsp), %rcx       # 8-byte Reload
	movq	%rdx, 22896(%rsp)       # 8-byte Spill
	movq	%rcx, %rdx
	movq	22912(%rsp), %rcx       # 8-byte Reload
	movq	%r8, 22888(%rsp)        # 8-byte Spill
	movq	23000(%rsp), %r8        # 8-byte Reload
	movq	%r9, 22880(%rsp)        # 8-byte Spill
	movl	%ebp, %r9d
	movl	$1, (%rsp)
	movl	%eax, 22876(%rsp)       # 4-byte Spill
	movl	%ebp, 22872(%rsp)       # 4-byte Spill
	movl	%r15d, 22868(%rsp)      # 4-byte Spill
	movq	%r12, 22856(%rsp)       # 8-byte Spill
	movq	%r14, 22848(%rsp)       # 8-byte Spill
	movq	%r13, 22840(%rsp)       # 8-byte Spill
	movq	%rbx, 22832(%rsp)       # 8-byte Spill
	movq	%r10, 22824(%rsp)       # 8-byte Spill
	movq	%r11, 22816(%rsp)       # 8-byte Spill
	callq	trace_logger_log0
	movq	22848(%rsp), %rdi       # 8-byte Reload
	movq	22992(%rsp), %rsi       # 8-byte Reload
	movq	22904(%rsp), %rdx       # 8-byte Reload
	movq	22896(%rsp), %rcx       # 8-byte Reload
	movq	22952(%rsp), %r8        # 8-byte Reload
	movq	22896(%rsp), %r9        # 8-byte Reload
	movq	22944(%rsp), %r10       # 8-byte Reload
	movq	%r10, (%rsp)
	callq	trace_logger_log_int
	movq	22896(%rsp), %rdi       # 8-byte Reload
	movq	22992(%rsp), %rsi       # 8-byte Reload
	movq	22904(%rsp), %rdx       # 8-byte Reload
	movq	22896(%rsp), %rcx       # 8-byte Reload
	movq	22968(%rsp), %r8        # 8-byte Reload
	movq	22896(%rsp), %r9        # 8-byte Reload
	movq	22960(%rsp), %r10       # 8-byte Reload
	movq	%r10, (%rsp)
	callq	trace_logger_log_int
	movq	22856(%rsp), %rdi       # 8-byte Reload
	movq	22992(%rsp), %rsi       # 8-byte Reload
	movq	23080(%rsp), %rdx       # 8-byte Reload
	movq	22896(%rsp), %rcx       # 8-byte Reload
	movq	22984(%rsp), %r8        # 8-byte Reload
	movq	22904(%rsp), %r9        # 8-byte Reload
	movq	22976(%rsp), %r10       # 8-byte Reload
	movq	%r10, (%rsp)
	callq	trace_logger_log_int
	movq	22880(%rsp), %rdi       # 8-byte Reload
	movq	23024(%rsp), %rsi       # 8-byte Reload
	movq	23016(%rsp), %rdx       # 8-byte Reload
	movq	23008(%rsp), %rcx       # 8-byte Reload
	movq	23000(%rsp), %r8        # 8-byte Reload
	movl	22872(%rsp), %r9d       # 4-byte Reload
	movl	$1, (%rsp)
	callq	trace_logger_log0
	movq	22848(%rsp), %rdi       # 8-byte Reload
	movq	22840(%rsp), %rsi       # 8-byte Reload
	movq	22904(%rsp), %rdx       # 8-byte Reload
	movq	22896(%rsp), %rcx       # 8-byte Reload
	movq	23040(%rsp), %r8        # 8-byte Reload
	movq	22896(%rsp), %r9        # 8-byte Reload
	movq	23032(%rsp), %r10       # 8-byte Reload
	movq	%r10, (%rsp)
	callq	trace_logger_log_int
	movq	22896(%rsp), %rdi       # 8-byte Reload
	movq	22840(%rsp), %rsi       # 8-byte Reload
	movq	22904(%rsp), %rdx       # 8-byte Reload
	movq	22896(%rsp), %rcx       # 8-byte Reload
	movq	23056(%rsp), %r8        # 8-byte Reload
	movq	22896(%rsp), %r9        # 8-byte Reload
	movq	23048(%rsp), %r10       # 8-byte Reload
	movq	%r10, (%rsp)
	callq	trace_logger_log_int
	movl	22876(%rsp), %eax       # 4-byte Reload
	movl	%eax, %ebp
	movl	%ebp, %edx
	movq	22856(%rsp), %rdi       # 8-byte Reload
	movq	22840(%rsp), %rsi       # 8-byte Reload
	movq	22896(%rsp), %rcx       # 8-byte Reload
	movq	23072(%rsp), %r8        # 8-byte Reload
	movq	22904(%rsp), %r9        # 8-byte Reload
	movq	23064(%rsp), %r10       # 8-byte Reload
	movq	%r10, (%rsp)
	callq	trace_logger_log_int
	movq	22880(%rsp), %rdi       # 8-byte Reload
	movq	22824(%rsp), %rsi       # 8-byte Reload
	movq	22816(%rsp), %rdx       # 8-byte Reload
	movq	22832(%rsp), %rcx       # 8-byte Reload
	movq	22848(%rsp), %r8        # 8-byte Reload
	movl	22872(%rsp), %r9d       # 4-byte Reload
	movl	$1, (%rsp)
	callq	trace_logger_log0
	movq	22896(%rsp), %rdi       # 8-byte Reload
	movq	22904(%rsp), %rsi       # 8-byte Reload
	movq	22904(%rsp), %rdx       # 8-byte Reload
	movq	22896(%rsp), %rcx       # 8-byte Reload
	movq	22888(%rsp), %r8        # 8-byte Reload
	movq	22904(%rsp), %r9        # 8-byte Reload
	movq	22920(%rsp), %r10       # 8-byte Reload
	movq	%r10, (%rsp)
	callq	trace_logger_log_int
	movl	22876(%rsp), %eax       # 4-byte Reload
	movl	%eax, 22812(%rsp)       # 4-byte Spill
.LBB2_4:                                #   Parent Loop BB2_1 Depth=1
                                        #     Parent Loop BB2_2 Depth=2
                                        #       Parent Loop BB2_3 Depth=3
                                        # =>      This Inner Loop Header: Depth=4
	movl	22812(%rsp), %eax       # 4-byte Reload
	movl	$1, %ecx
	movq	%rsp, %rdx
	movl	$1, (%rdx)
	movl	$.L.str191, %esi
                                        # kill: RSI<def> ESI<kill>
	movl	$.L.str192, %edi
	movl	%edi, %edx
	movl	$.L.str193, %edi
	movl	%edi, %r8d
	movl	$48, %edi
	movl	%edi, %r9d
	movq	$-1, %rdi
	xorl	%r10d, %r10d
	movl	%ecx, 22808(%rsp)       # 4-byte Spill
	movq	%r8, %rcx
	movq	%r9, %r8
	movl	%r10d, %r9d
	movl	%eax, 22804(%rsp)       # 4-byte Spill
	movl	%r10d, 22800(%rsp)      # 4-byte Spill
	callq	trace_logger_log0
	movq	%rsp, %rcx
	movq	$.L.str195, (%rcx)
	movl	$.L.str194, %eax
	movl	%eax, %r8d
	movl	$2, %eax
	movl	%eax, %ecx
	movl	$32, %eax
	movl	%eax, %edx
	movl	22800(%rsp), %eax       # 4-byte Reload
	movl	%eax, %esi
	movl	$1, %r9d
	movl	%r9d, %edi
	movq	%rdi, 22792(%rsp)       # 8-byte Spill
	movq	%rcx, %rdi
	movq	%rsi, 22784(%rsp)       # 8-byte Spill
	movq	%rdx, %rsi
	movq	22784(%rsp), %r11       # 8-byte Reload
	movq	%rdx, 22776(%rsp)       # 8-byte Spill
	movq	%r11, %rdx
	movq	22792(%rsp), %rbx       # 8-byte Reload
	movq	%rcx, 22768(%rsp)       # 8-byte Spill
	movq	%rbx, %rcx
	movq	%rbx, %r9
	callq	trace_logger_log_int
	movq	%rsp, %rcx
	movq	$.L.str197, (%rcx)
	movl	$.L.str196, %eax
	movl	%eax, %r8d
	movq	22792(%rsp), %rdi       # 8-byte Reload
	movq	22776(%rsp), %rsi       # 8-byte Reload
	movq	22784(%rsp), %rdx       # 8-byte Reload
	movq	22792(%rsp), %rcx       # 8-byte Reload
	movq	22792(%rsp), %r9        # 8-byte Reload
	callq	trace_logger_log_int
	movl	22804(%rsp), %eax       # 4-byte Reload
	movl	%eax, %r10d
	movl	%r10d, %edx
	movq	%rsp, %rcx
	movq	$.L.str199, (%rcx)
	movl	$.L.str198, %r10d
	movl	%r10d, %r8d
	movl	$19134, %r10d           # imm = 0x4ABE
	movl	%r10d, %ecx
	movq	%rcx, %rdi
	movq	22776(%rsp), %rsi       # 8-byte Reload
	movq	22792(%rsp), %r9        # 8-byte Reload
	movq	%rcx, 22760(%rsp)       # 8-byte Spill
	movq	%r9, %rcx
	movq	22784(%rsp), %r9        # 8-byte Reload
	callq	trace_logger_log_int
	movq	%rsp, %rcx
	movl	$1, (%rcx)
	movl	$.L.str200, %eax
	movl	%eax, %esi
	movl	$.L.str201, %eax
	movl	%eax, %edx
	movl	$.L.str202, %eax
	movl	%eax, %ecx
	movl	$118, %eax
	movl	%eax, %edi
	movl	$49, %eax
	movl	%eax, %r8d
	movq	%rdi, 22752(%rsp)       # 8-byte Spill
	movl	22800(%rsp), %r9d       # 4-byte Reload
	callq	trace_logger_log0
	movq	%rsp, %rcx
	movq	$.L.str204, (%rcx)
	movl	$getopt, %eax
	movl	%eax, %edx
	movl	$.L.str203, %eax
	movl	%eax, %r8d
	movl	$4, %eax
	movl	%eax, %ecx
	movl	$64, %eax
	movl	%eax, %esi
	movq	%rcx, %rdi
	movq	%rsi, 22744(%rsp)       # 8-byte Spill
	movq	22792(%rsp), %r11       # 8-byte Reload
	movq	%rcx, 22736(%rsp)       # 8-byte Spill
	movq	%r11, %rcx
	movq	22784(%rsp), %r9        # 8-byte Reload
	callq	trace_logger_log_int
	movl	24044(%rsp), %eax       # 4-byte Reload
	movl	%eax, %r10d
	movl	%r10d, %ecx
	movq	%rsp, %rdx
	movq	$.L.str206, (%rdx)
	movl	$.L.str205, %r10d
	movl	%r10d, %r8d
	movq	22792(%rsp), %rdi       # 8-byte Reload
	movq	22776(%rsp), %rsi       # 8-byte Reload
	movq	%rcx, %rdx
	movq	22792(%rsp), %r9        # 8-byte Reload
	movq	%rcx, 22728(%rsp)       # 8-byte Spill
	movq	%r9, %rcx
	movq	22784(%rsp), %r9        # 8-byte Reload
	callq	trace_logger_log_int
	movq	%rsp, %rcx
	movq	$.L.str208, (%rcx)
	movl	$.L.str207, %eax
	movl	%eax, %r8d
	movl	$24601, %eax            # imm = 0x6019
	movl	%eax, %ecx
	movq	%rcx, %rdi
	movq	22776(%rsp), %rsi       # 8-byte Reload
	movq	22728(%rsp), %rdx       # 8-byte Reload
	movq	22792(%rsp), %r9        # 8-byte Reload
	movq	%rcx, 22720(%rsp)       # 8-byte Spill
	movq	%r9, %rcx
	movq	22784(%rsp), %r9        # 8-byte Reload
	callq	trace_logger_log_int
	movq	%rsp, %rcx
	movq	$.L.str210, (%rcx)
	movl	$.L.str209, %eax
	movl	%eax, %r8d
	movq	22768(%rsp), %rdi       # 8-byte Reload
	movq	22744(%rsp), %rsi       # 8-byte Reload
	movq	24032(%rsp), %rdx       # 8-byte Reload
	movq	22792(%rsp), %rcx       # 8-byte Reload
	movq	22784(%rsp), %r9        # 8-byte Reload
	callq	trace_logger_log_int
	movq	%rsp, %rcx
	movq	$.L.str212, (%rcx)
	movl	$.L.str211, %eax
	movl	%eax, %r8d
	movq	22720(%rsp), %rdi       # 8-byte Reload
	movq	22744(%rsp), %rsi       # 8-byte Reload
	movq	24032(%rsp), %rdx       # 8-byte Reload
	movq	22792(%rsp), %rcx       # 8-byte Reload
	movq	22784(%rsp), %r9        # 8-byte Reload
	callq	trace_logger_log_int
	movq	%rsp, %rcx
	movq	$.L.str214, (%rcx)
	movl	$.L.str1172, %eax
	movl	%eax, %ecx
	movl	$.L.str213, %eax
	movl	%eax, %r8d
	movl	$3, %eax
	movl	%eax, %edx
	movq	%rdx, %rdi
	movq	22744(%rsp), %rsi       # 8-byte Reload
	movq	%rdx, 22712(%rsp)       # 8-byte Spill
	movq	%rcx, %rdx
	movq	22784(%rsp), %r9        # 8-byte Reload
	movq	%rcx, 22704(%rsp)       # 8-byte Spill
	movq	%r9, %rcx
	callq	trace_logger_log_int
	movq	%rsp, %rcx
	movq	$.L.str216, (%rcx)
	movl	$.L.str215, %eax
	movl	%eax, %r8d
	movq	22720(%rsp), %rdi       # 8-byte Reload
	movq	22744(%rsp), %rsi       # 8-byte Reload
	movq	22704(%rsp), %rdx       # 8-byte Reload
	movq	22792(%rsp), %rcx       # 8-byte Reload
	movq	22784(%rsp), %r9        # 8-byte Reload
	callq	trace_logger_log_int
	movl	24044(%rsp), %edi       # 4-byte Reload
	movq	24032(%rsp), %rsi       # 8-byte Reload
	movq	22704(%rsp), %rdx       # 8-byte Reload
	callq	getopt
.Ltmp84:
	#DEBUG_VALUE: main:opt <- EAX
	movl	%eax, %edi
	movl	%edi, %ecx
	movq	%rsp, %rdx
	movq	$.L.str218, (%rdx)
	movl	$.L.str217, %edi
	movl	%edi, %r8d
	movq	22760(%rsp), %rdi       # 8-byte Reload
	movq	22776(%rsp), %rsi       # 8-byte Reload
	movq	%rcx, %rdx
	movq	22792(%rsp), %r9        # 8-byte Reload
	movq	%rcx, 22696(%rsp)       # 8-byte Spill
	movq	%r9, %rcx
	movq	22784(%rsp), %r9        # 8-byte Reload
	movl	%eax, 22692(%rsp)       # 4-byte Spill
.Ltmp85:
	#DEBUG_VALUE: main:opt <- [RSP+22692]
	callq	trace_logger_log_int
.Ltmp86:
	movq	%rsp, %rcx
	movl	$1, (%rcx)
	movl	$.L.str219, %eax
	movl	%eax, %esi
	movl	$.L.str220, %eax
	movl	%eax, %edx
	movl	$.L.str221, %eax
	movl	%eax, %ecx
	movq	22752(%rsp), %rdi       # 8-byte Reload
	movq	22712(%rsp), %r8        # 8-byte Reload
	movl	22800(%rsp), %r9d       # 4-byte Reload
	callq	trace_logger_log0
	movq	%rsp, %rcx
	movq	$.L.str223, (%rcx)
	movl	$.L.str222, %eax
	movl	%eax, %r8d
	movl	$14, %eax
	movl	%eax, %edi
	movq	22784(%rsp), %rsi       # 8-byte Reload
	movq	22784(%rsp), %rdx       # 8-byte Reload
	movq	22792(%rsp), %rcx       # 8-byte Reload
	movq	22784(%rsp), %r9        # 8-byte Reload
	callq	trace_logger_log_int
	movq	%rsp, %rcx
	movq	$.L.str225, (%rcx)
	movl	$.L.str224, %eax
	movl	%eax, %r8d
	movl	$13, %eax
	movl	%eax, %edi
	movl	$63, %eax
	movl	%eax, %edx
	movq	22776(%rsp), %rsi       # 8-byte Reload
	movq	22784(%rsp), %rcx       # 8-byte Reload
	movq	22784(%rsp), %r9        # 8-byte Reload
	callq	trace_logger_log_int
	movq	%rsp, %rcx
	movq	$.L.str227, (%rcx)
	movl	$.L.str226, %eax
	movl	%eax, %r8d
	movl	$12, %eax
	movl	%eax, %edi
	movq	22784(%rsp), %rsi       # 8-byte Reload
	movq	22784(%rsp), %rdx       # 8-byte Reload
	movq	22792(%rsp), %rcx       # 8-byte Reload
	movq	22784(%rsp), %r9        # 8-byte Reload
	callq	trace_logger_log_int
	movq	%rsp, %rcx
	movq	$.L.str229, (%rcx)
	movl	$.L.str228, %eax
	movl	%eax, %r8d
	movl	$11, %eax
	movl	%eax, %edi
	movl	$107, %eax
	movl	%eax, %edx
	movq	22776(%rsp), %rsi       # 8-byte Reload
	movq	22784(%rsp), %rcx       # 8-byte Reload
	movq	22784(%rsp), %r9        # 8-byte Reload
	callq	trace_logger_log_int
	movq	%rsp, %rcx
	movq	$.L.str231, (%rcx)
	movl	$.L.str230, %eax
	movl	%eax, %r8d
	movl	$10, %eax
	movl	%eax, %edi
	movq	22784(%rsp), %rsi       # 8-byte Reload
	movq	22784(%rsp), %rdx       # 8-byte Reload
	movq	22792(%rsp), %rcx       # 8-byte Reload
	movq	22784(%rsp), %r9        # 8-byte Reload
	callq	trace_logger_log_int
	movq	%rsp, %rcx
	movq	$.L.str233, (%rcx)
	movl	$.L.str232, %eax
	movl	%eax, %r8d
	movl	$9, %eax
	movl	%eax, %edi
	movl	$116, %eax
	movl	%eax, %edx
	movq	22776(%rsp), %rsi       # 8-byte Reload
	movq	22784(%rsp), %rcx       # 8-byte Reload
	movq	22784(%rsp), %r9        # 8-byte Reload
	callq	trace_logger_log_int
	movq	%rsp, %rcx
	movq	$.L.str235, (%rcx)
	movl	$.L.str234, %eax
	movl	%eax, %r8d
	movl	$8, %eax
	movl	%eax, %edi
	movq	22784(%rsp), %rsi       # 8-byte Reload
	movq	22784(%rsp), %rdx       # 8-byte Reload
	movq	22792(%rsp), %rcx       # 8-byte Reload
	movq	22784(%rsp), %r9        # 8-byte Reload
	callq	trace_logger_log_int
	movq	%rsp, %rcx
	movq	$.L.str237, (%rcx)
	movl	$.L.str236, %eax
	movl	%eax, %r8d
	movl	$7, %eax
	movl	%eax, %edi
	movl	$98, %eax
	movl	%eax, %edx
	movq	22776(%rsp), %rsi       # 8-byte Reload
	movq	22784(%rsp), %rcx       # 8-byte Reload
	movq	22784(%rsp), %r9        # 8-byte Reload
	callq	trace_logger_log_int
	movq	%rsp, %rcx
	movq	$.L.str239, (%rcx)
	movl	$.L.str238, %eax
	movl	%eax, %r8d
	movl	$6, %eax
	movl	%eax, %edi
	movq	22784(%rsp), %rsi       # 8-byte Reload
	movq	22784(%rsp), %rdx       # 8-byte Reload
	movq	22792(%rsp), %rcx       # 8-byte Reload
	movq	22784(%rsp), %r9        # 8-byte Reload
	callq	trace_logger_log_int
	movq	%rsp, %rcx
	movq	$.L.str241, (%rcx)
	movl	$.L.str240, %eax
	movl	%eax, %r8d
	movl	$5, %eax
	movl	%eax, %edi
	movl	$105, %eax
	movl	%eax, %edx
	movq	22776(%rsp), %rsi       # 8-byte Reload
	movq	22784(%rsp), %rcx       # 8-byte Reload
	movq	22784(%rsp), %r9        # 8-byte Reload
	callq	trace_logger_log_int
	movq	%rsp, %rcx
	movq	$.L.str243, (%rcx)
	movl	$.L.str242, %eax
	movl	%eax, %r8d
	movq	22736(%rsp), %rdi       # 8-byte Reload
	movq	22784(%rsp), %rsi       # 8-byte Reload
	movq	22784(%rsp), %rdx       # 8-byte Reload
	movq	22792(%rsp), %rcx       # 8-byte Reload
	movq	22784(%rsp), %r9        # 8-byte Reload
	callq	trace_logger_log_int
	movq	%rsp, %rcx
	movq	$.L.str245, (%rcx)
	movl	$.L.str244, %eax
	movl	%eax, %r8d
	movl	$4294967295, %eax       # imm = 0xFFFFFFFF
	movl	%eax, %edx
	movq	22712(%rsp), %rdi       # 8-byte Reload
	movq	22776(%rsp), %rsi       # 8-byte Reload
	movq	22784(%rsp), %rcx       # 8-byte Reload
	movq	22784(%rsp), %r9        # 8-byte Reload
	callq	trace_logger_log_int
	movq	%rsp, %rcx
	movq	$.L.str247, (%rcx)
	movl	$.L.str246, %eax
	movl	%eax, %r8d
	movq	22768(%rsp), %rdi       # 8-byte Reload
	movq	22784(%rsp), %rsi       # 8-byte Reload
	movq	22784(%rsp), %rdx       # 8-byte Reload
	movq	22792(%rsp), %rcx       # 8-byte Reload
	movq	22784(%rsp), %r9        # 8-byte Reload
	callq	trace_logger_log_int
	movq	%rsp, %rcx
	movq	$.L.str249, (%rcx)
	movl	$.L.str248, %eax
	movl	%eax, %r8d
	movq	22792(%rsp), %rdi       # 8-byte Reload
	movq	22776(%rsp), %rsi       # 8-byte Reload
	movq	22696(%rsp), %rdx       # 8-byte Reload
	movq	22792(%rsp), %rcx       # 8-byte Reload
	movq	22784(%rsp), %r9        # 8-byte Reload
	callq	trace_logger_log_int
	movl	22692(%rsp), %eax       # 4-byte Reload
	subl	$62, %eax
	movl	$1, %r10d
	movl	22692(%rsp), %ebp       # 4-byte Reload
	movl	%eax, 22688(%rsp)       # 4-byte Spill
	movl	%r10d, 22684(%rsp)      # 4-byte Spill
	movl	%ebp, 22680(%rsp)       # 4-byte Spill
	jg	.LBB2_43
	jmp	.LBB2_42
.LBB2_42:
	movl	22680(%rsp), %eax       # 4-byte Reload
	subl	$-1, %eax
	movl	%eax, 22676(%rsp)       # 4-byte Spill
	je	.LBB2_10
	jmp	.LBB2_9
.LBB2_43:                               #   in Loop: Header=BB2_4 Depth=4
	movl	22680(%rsp), %eax       # 4-byte Reload
	subl	$97, %eax
	movl	%eax, 22672(%rsp)       # 4-byte Spill
	jg	.LBB2_45
	jmp	.LBB2_44
.LBB2_44:
	movl	22680(%rsp), %eax       # 4-byte Reload
	subl	$63, %eax
	movl	%eax, 22668(%rsp)       # 4-byte Spill
	je	.LBB2_8
	jmp	.LBB2_9
.LBB2_45:                               #   in Loop: Header=BB2_4 Depth=4
	movl	22680(%rsp), %eax       # 4-byte Reload
	subl	$115, %eax
	movl	%eax, 22664(%rsp)       # 4-byte Spill
	jg	.LBB2_47
	jmp	.LBB2_46
.LBB2_46:                               #   in Loop: Header=BB2_4 Depth=4
	movl	22680(%rsp), %eax       # 4-byte Reload
	subl	$98, %eax
	movl	22808(%rsp), %ecx       # 4-byte Reload
	vmovss	23156(%rsp), %xmm0      # 4-byte Reload
	movq	23080(%rsp), %rdx       # 8-byte Reload
	movl	22804(%rsp), %esi       # 4-byte Reload
	movl	%eax, 22660(%rsp)       # 4-byte Spill
	movl	%ecx, 23932(%rsp)       # 4-byte Spill
	vmovss	%xmm0, 23928(%rsp)      # 4-byte Spill
	movq	%rdx, 23920(%rsp)       # 8-byte Spill
	movl	%esi, 23916(%rsp)       # 4-byte Spill
	je	.LBB2_1
	jmp	.LBB2_48
.LBB2_48:                               #   in Loop: Header=BB2_4 Depth=4
	movl	22680(%rsp), %eax       # 4-byte Reload
	subl	$105, %eax
	movl	%eax, 22656(%rsp)       # 4-byte Spill
	je	.LBB2_5
	jmp	.LBB2_49
.LBB2_49:                               #   in Loop: Header=BB2_4 Depth=4
	movl	22680(%rsp), %eax       # 4-byte Reload
	subl	$107, %eax
	movl	%eax, 22652(%rsp)       # 4-byte Spill
	je	.LBB2_7
	jmp	.LBB2_9
.LBB2_47:                               #   in Loop: Header=BB2_2 Depth=2
	movl	22680(%rsp), %eax       # 4-byte Reload
	subl	$116, %eax
	movl	%eax, 22648(%rsp)       # 4-byte Spill
	je	.LBB2_6
	jmp	.LBB2_9
.LBB2_5:                                #   in Loop: Header=BB2_3 Depth=3
	movabsq	$1, %rax
	movabsq	$0, %rcx
	leaq	.L.str260, %r8
	leaq	.L.str261, %rdx
	movabsq	$121, %rdi
	leaq	.L.str257, %rsi
	leaq	.L.str258, %r9
	leaq	.L.str259, %r10
	movabsq	$2, %r11
	movl	$0, %ebx
	movl	$1, %ebp
	movabsq	$19134, %r14            # imm = 0x4ABE
	movabsq	$64, %r15
	leaq	.L.str255, %r12
	leaq	.L.str256, %r13
	movq	%rax, 22640(%rsp)       # 8-byte Spill
	leaq	optarg, %rax
	movq	%rax, 22632(%rsp)       # 8-byte Spill
	leaq	.L.str253, %rax
	movq	%rax, 22624(%rsp)       # 8-byte Spill
	leaq	.L.str254, %rax
	movq	%rax, 22616(%rsp)       # 8-byte Spill
	movabsq	$120, %rax
	movq	%rax, 22608(%rsp)       # 8-byte Spill
	leaq	.L.str250, %rax
	movq	%rax, 22600(%rsp)       # 8-byte Spill
	leaq	.L.str251, %rax
	movq	%rax, 22592(%rsp)       # 8-byte Spill
	leaq	.L.str252, %rax
	movq	%rax, 22584(%rsp)       # 8-byte Spill
	movabsq	$27, %rax
	.loc	3 120 0                 # kmeans.c:120:0
.Ltmp87:
	movq	%rax, 22576(%rsp)       # 8-byte Spill
	movq	22608(%rsp), %rax       # 8-byte Reload
	movq	%rdi, 22568(%rsp)       # 8-byte Spill
	movq	%rax, %rdi
	movq	22600(%rsp), %rax       # 8-byte Reload
	movq	%rsi, 22560(%rsp)       # 8-byte Spill
	movq	%rax, %rsi
	movq	22592(%rsp), %rax       # 8-byte Reload
	movq	%rdx, 22552(%rsp)       # 8-byte Spill
	movq	%rax, %rdx
	movq	22584(%rsp), %rax       # 8-byte Reload
	movq	%rcx, 22544(%rsp)       # 8-byte Spill
	movq	%rax, %rcx
	movq	22576(%rsp), %rax       # 8-byte Reload
	movq	%r8, 22536(%rsp)        # 8-byte Spill
	movq	%rax, %r8
	movq	%r9, 22528(%rsp)        # 8-byte Spill
	movl	%ebx, %r9d
	movl	$1, (%rsp)
	movq	%r14, 22520(%rsp)       # 8-byte Spill
	movl	%ebp, 22516(%rsp)       # 4-byte Spill
	movq	%r15, 22504(%rsp)       # 8-byte Spill
	movq	%r13, 22496(%rsp)       # 8-byte Spill
	movq	%r12, 22488(%rsp)       # 8-byte Spill
	movl	%ebx, 22484(%rsp)       # 4-byte Spill
	movq	%r10, 22472(%rsp)       # 8-byte Spill
	movq	%r11, 22464(%rsp)       # 8-byte Spill
	callq	trace_logger_log0
	movq	22640(%rsp), %rdi       # 8-byte Reload
	movq	22504(%rsp), %rsi       # 8-byte Reload
	movq	22632(%rsp), %rdx       # 8-byte Reload
	movq	22640(%rsp), %rcx       # 8-byte Reload
	movq	22624(%rsp), %r8        # 8-byte Reload
	movq	22544(%rsp), %r9        # 8-byte Reload
	movq	22616(%rsp), %rax       # 8-byte Reload
	movq	%rax, (%rsp)
	callq	trace_logger_log_int
	movq	optarg, %rax
	movq	22520(%rsp), %rdi       # 8-byte Reload
	movq	22504(%rsp), %rsi       # 8-byte Reload
	movq	%rax, %rdx
	movq	22640(%rsp), %rcx       # 8-byte Reload
	movq	22488(%rsp), %r8        # 8-byte Reload
	movq	22544(%rsp), %r9        # 8-byte Reload
	movq	22496(%rsp), %r10       # 8-byte Reload
	movq	%r10, (%rsp)
	movq	%rax, 22456(%rsp)       # 8-byte Spill
	callq	trace_logger_log_int
.Ltmp88:
	#DEBUG_VALUE: main:filename <- [RSP+22456]
	.loc	3 121 0                 # kmeans.c:121:0
	movq	22568(%rsp), %rdi       # 8-byte Reload
	movq	22560(%rsp), %rsi       # 8-byte Reload
	movq	22528(%rsp), %rdx       # 8-byte Reload
	movq	22472(%rsp), %rcx       # 8-byte Reload
	movq	22464(%rsp), %r8        # 8-byte Reload
	movl	22484(%rsp), %r9d       # 4-byte Reload
	movl	$1, (%rsp)
	callq	trace_logger_log0
	movq	22640(%rsp), %rdi       # 8-byte Reload
	movq	22544(%rsp), %rsi       # 8-byte Reload
	movq	22544(%rsp), %rdx       # 8-byte Reload
	movq	22640(%rsp), %rcx       # 8-byte Reload
	movq	22536(%rsp), %r8        # 8-byte Reload
	movq	22544(%rsp), %r9        # 8-byte Reload
	movq	22552(%rsp), %rax       # 8-byte Reload
	movq	%rax, (%rsp)
	callq	trace_logger_log_int
	movq	22456(%rsp), %rax       # 8-byte Reload
	movl	22804(%rsp), %ebx       # 4-byte Reload
	movq	%rax, 23096(%rsp)       # 8-byte Spill
	movl	%ebx, 23092(%rsp)       # 4-byte Spill
	jmp	.LBB2_3
.Ltmp89:
.LBB2_6:                                #   in Loop: Header=BB2_2 Depth=2
	movabsq	$24601, %rdi            # imm = 0x6019
	movabsq	$64, %rax
	movabsq	$1, %rcx
	leaq	.L.str276, %r8
	movabsq	$0, %rdx
	leaq	.L.str277, %rsi
	leaq	.L.str274, %r9
	leaq	.L.str275, %r10
	movabsq	$2, %r11
	leaq	atof, %rbx
	leaq	.L.str272, %r14
	leaq	.L.str273, %r15
	movabsq	$124, %r12
	leaq	.L.str269, %r13
	leaq	.L.str270, %rbp
	movq	%rax, 22448(%rsp)       # 8-byte Spill
	leaq	.L.str271, %rax
	movq	%rax, 22440(%rsp)       # 8-byte Spill
	movabsq	$49, %rax
	movq	%rsi, 22432(%rsp)       # 8-byte Spill
	movl	$0, %esi
	movl	%esi, 22428(%rsp)       # 4-byte Spill
	movl	$1, %esi
	movq	%rax, 22416(%rsp)       # 8-byte Spill
	movabsq	$19134, %rax            # imm = 0x4ABE
	movq	%rax, 22408(%rsp)       # 8-byte Spill
	leaq	.L.str267, %rax
	movq	%rax, 22400(%rsp)       # 8-byte Spill
	leaq	.L.str268, %rax
	movq	%rax, 22392(%rsp)       # 8-byte Spill
	leaq	optarg, %rax
	movq	%rax, 22384(%rsp)       # 8-byte Spill
	leaq	.L.str265, %rax
	movq	%rax, 22376(%rsp)       # 8-byte Spill
	leaq	.L.str266, %rax
	movq	%rax, 22368(%rsp)       # 8-byte Spill
	leaq	.L.str262, %rax
	movq	%rax, 22360(%rsp)       # 8-byte Spill
	leaq	.L.str263, %rax
	movq	%rax, 22352(%rsp)       # 8-byte Spill
	leaq	.L.str264, %rax
	movq	%rax, 22344(%rsp)       # 8-byte Spill
	movabsq	$27, %rax
	.loc	3 124 33                # kmeans.c:124:33
	movq	%rdi, 22336(%rsp)       # 8-byte Spill
	movq	%r12, %rdi
	movq	%rax, 22328(%rsp)       # 8-byte Spill
	movq	22360(%rsp), %rax       # 8-byte Reload
	movl	%esi, 22324(%rsp)       # 4-byte Spill
	movq	%rax, %rsi
	movq	22352(%rsp), %rax       # 8-byte Reload
	movq	%rdx, 22312(%rsp)       # 8-byte Spill
	movq	%rax, %rdx
	movq	22344(%rsp), %rax       # 8-byte Reload
	movq	%rcx, 22304(%rsp)       # 8-byte Spill
	movq	%rax, %rcx
	movq	22328(%rsp), %rax       # 8-byte Reload
	movq	%r8, 22296(%rsp)        # 8-byte Spill
	movq	%rax, %r8
	movl	22428(%rsp), %eax       # 4-byte Reload
	movq	%r9, 22288(%rsp)        # 8-byte Spill
	movl	%eax, %r9d
	movl	$1, (%rsp)
	movq	%rbp, 22280(%rsp)       # 8-byte Spill
	movq	%r15, 22272(%rsp)       # 8-byte Spill
	movq	%r14, 22264(%rsp)       # 8-byte Spill
	movq	%r12, 22256(%rsp)       # 8-byte Spill
	movq	%r13, 22248(%rsp)       # 8-byte Spill
	movq	%rbx, 22240(%rsp)       # 8-byte Spill
	movq	%r10, 22232(%rsp)       # 8-byte Spill
	movq	%r11, 22224(%rsp)       # 8-byte Spill
	callq	trace_logger_log0
	movq	22304(%rsp), %rdi       # 8-byte Reload
	movq	22448(%rsp), %rsi       # 8-byte Reload
	movq	22384(%rsp), %rdx       # 8-byte Reload
	movq	22304(%rsp), %rcx       # 8-byte Reload
	movq	22376(%rsp), %r8        # 8-byte Reload
	movq	22312(%rsp), %r9        # 8-byte Reload
	movq	22368(%rsp), %r10       # 8-byte Reload
	movq	%r10, (%rsp)
	callq	trace_logger_log_int
	movq	optarg, %rcx
	movq	22408(%rsp), %rdi       # 8-byte Reload
	movq	22448(%rsp), %rsi       # 8-byte Reload
	movq	%rcx, %rdx
	movq	22304(%rsp), %r8        # 8-byte Reload
	movq	%rcx, 22216(%rsp)       # 8-byte Spill
	movq	%r8, %rcx
	movq	22400(%rsp), %r8        # 8-byte Reload
	movq	22312(%rsp), %r9        # 8-byte Reload
	movq	22392(%rsp), %r10       # 8-byte Reload
	movq	%r10, (%rsp)
	callq	trace_logger_log_int
	movq	22256(%rsp), %rdi       # 8-byte Reload
	movq	22248(%rsp), %rsi       # 8-byte Reload
	movq	22280(%rsp), %rdx       # 8-byte Reload
	movq	22440(%rsp), %rcx       # 8-byte Reload
	movq	22416(%rsp), %r8        # 8-byte Reload
	movl	22428(%rsp), %r9d       # 4-byte Reload
	movl	$1, (%rsp)
	callq	trace_logger_log0
	movq	22224(%rsp), %rdi       # 8-byte Reload
	movq	22448(%rsp), %rsi       # 8-byte Reload
	movq	22240(%rsp), %rdx       # 8-byte Reload
	movq	22304(%rsp), %rcx       # 8-byte Reload
	movq	22264(%rsp), %r8        # 8-byte Reload
	movq	22312(%rsp), %r9        # 8-byte Reload
	movq	22272(%rsp), %r10       # 8-byte Reload
	movq	%r10, (%rsp)
	callq	trace_logger_log_int
	movq	22304(%rsp), %rdi       # 8-byte Reload
	movq	22448(%rsp), %rsi       # 8-byte Reload
	movq	22216(%rsp), %rdx       # 8-byte Reload
	movq	22304(%rsp), %rcx       # 8-byte Reload
	movq	22288(%rsp), %r8        # 8-byte Reload
	movq	22312(%rsp), %r9        # 8-byte Reload
	movq	22232(%rsp), %r10       # 8-byte Reload
	movq	%r10, (%rsp)
	callq	trace_logger_log_int
	movq	22336(%rsp), %rdi       # 8-byte Reload
	movq	22448(%rsp), %rsi       # 8-byte Reload
	movq	22216(%rsp), %rdx       # 8-byte Reload
	movq	22304(%rsp), %rcx       # 8-byte Reload
	movq	22296(%rsp), %r8        # 8-byte Reload
	movq	22312(%rsp), %r9        # 8-byte Reload
	movq	22432(%rsp), %r10       # 8-byte Reload
	movq	%r10, (%rsp)
	callq	trace_logger_log_int
	movq	22216(%rsp), %rdi       # 8-byte Reload
	callq	atof
	movabsq	$1, %rcx
	movabsq	$0, %rdx
	leaq	.L.str290, %r8
	leaq	.L.str291, %rsi
	movabsq	$125, %rdi
	leaq	.L.str287, %r9
	leaq	.L.str288, %r10
	leaq	.L.str289, %r11
	movabsq	$2, %rbx
	movl	$0, %eax
	movl	$1, %ebp
	movabsq	$19134, %r14            # imm = 0x4ABE
	movabsq	$32, %r15
	leaq	.L.str285, %r12
	leaq	.L.str286, %r13
	movq	%rcx, 22208(%rsp)       # 8-byte Spill
	movabsq	$64, %rcx
	movq	%rcx, 22200(%rsp)       # 8-byte Spill
	leaq	.L.str283, %rcx
	movq	%rcx, 22192(%rsp)       # 8-byte Spill
	leaq	.L.str284, %rcx
	movq	%rcx, 22184(%rsp)       # 8-byte Spill
	movabsq	$124, %rcx
	movq	%rcx, 22176(%rsp)       # 8-byte Spill
	leaq	.L.str280, %rcx
	movq	%rcx, 22168(%rsp)       # 8-byte Spill
	leaq	.L.str281, %rcx
	movq	%rcx, 22160(%rsp)       # 8-byte Spill
	leaq	.L.str282, %rcx
	movq	%rcx, 22152(%rsp)       # 8-byte Spill
	movabsq	$40, %rcx
	movq	%rcx, 22144(%rsp)       # 8-byte Spill
	leaq	.L.str278, %rcx
	movq	%rcx, 22136(%rsp)       # 8-byte Spill
	leaq	.L.str279, %rcx
	movq	%rdi, 22128(%rsp)       # 8-byte Spill
	movq	%r14, %rdi
	movq	%rcx, 22120(%rsp)       # 8-byte Spill
	movq	22200(%rsp), %rcx       # 8-byte Reload
	movq	%rsi, 22112(%rsp)       # 8-byte Spill
	movq	%rcx, %rsi
	vmovsd	%xmm0, 22104(%rsp)      # 8-byte Spill
	movq	22208(%rsp), %rcx       # 8-byte Reload
	movq	%rdx, 22096(%rsp)       # 8-byte Spill
	movq	%rcx, %rdx
	movq	22136(%rsp), %rcx       # 8-byte Reload
	movq	%r8, 22088(%rsp)        # 8-byte Spill
	movq	22096(%rsp), %r8        # 8-byte Reload
	movq	%r9, 22080(%rsp)        # 8-byte Spill
	movq	22120(%rsp), %r9        # 8-byte Reload
	movq	%r15, 22072(%rsp)       # 8-byte Spill
	movl	%ebp, 22068(%rsp)       # 4-byte Spill
	movq	%r14, 22056(%rsp)       # 8-byte Spill
	movl	%eax, 22052(%rsp)       # 4-byte Spill
	movq	%r12, 22040(%rsp)       # 8-byte Spill
	movq	%r13, 22032(%rsp)       # 8-byte Spill
	movq	%rbx, 22024(%rsp)       # 8-byte Spill
	movq	%r10, 22016(%rsp)       # 8-byte Spill
	movq	%r11, 22008(%rsp)       # 8-byte Spill
	callq	trace_logger_log_double
	movq	22176(%rsp), %rdi       # 8-byte Reload
	movq	22168(%rsp), %rsi       # 8-byte Reload
	movq	22160(%rsp), %rdx       # 8-byte Reload
	movq	22152(%rsp), %rcx       # 8-byte Reload
	movq	22144(%rsp), %r8        # 8-byte Reload
	movl	22052(%rsp), %r9d       # 4-byte Reload
	movl	$1, (%rsp)
	callq	trace_logger_log0
	movq	22208(%rsp), %rdi       # 8-byte Reload
	movq	22200(%rsp), %rsi       # 8-byte Reload
	vmovsd	22104(%rsp), %xmm0      # 8-byte Reload
	movq	22208(%rsp), %rdx       # 8-byte Reload
	movq	22192(%rsp), %rcx       # 8-byte Reload
	movq	22096(%rsp), %r8        # 8-byte Reload
	movq	22184(%rsp), %r9        # 8-byte Reload
	callq	trace_logger_log_double
	vmovsd	22104(%rsp), %xmm0      # 8-byte Reload
	cvtsd2ss	%xmm0, %xmm1
	cvtss2sd	%xmm1, %xmm0
	movq	22056(%rsp), %rdi       # 8-byte Reload
	movq	22072(%rsp), %rsi       # 8-byte Reload
	movq	22208(%rsp), %rdx       # 8-byte Reload
	movq	22040(%rsp), %rcx       # 8-byte Reload
	movq	22096(%rsp), %r8        # 8-byte Reload
	movq	22032(%rsp), %r9        # 8-byte Reload
	vmovss	%xmm1, 22004(%rsp)      # 4-byte Spill
	callq	trace_logger_log_double
.Ltmp90:
	#DEBUG_VALUE: main:threshold <- [RSP+22004]
	.loc	3 125 0                 # kmeans.c:125:0
	movq	22128(%rsp), %rdi       # 8-byte Reload
	movq	22080(%rsp), %rsi       # 8-byte Reload
	movq	22016(%rsp), %rdx       # 8-byte Reload
	movq	22008(%rsp), %rcx       # 8-byte Reload
	movq	22024(%rsp), %r8        # 8-byte Reload
	movl	22052(%rsp), %r9d       # 4-byte Reload
	movl	$1, (%rsp)
	callq	trace_logger_log0
	movq	22208(%rsp), %rdi       # 8-byte Reload
	movq	22096(%rsp), %rsi       # 8-byte Reload
	movq	22096(%rsp), %rdx       # 8-byte Reload
	movq	22208(%rsp), %rcx       # 8-byte Reload
	movq	22088(%rsp), %r8        # 8-byte Reload
	movq	22096(%rsp), %r9        # 8-byte Reload
	movq	22112(%rsp), %r10       # 8-byte Reload
	movq	%r10, (%rsp)
	callq	trace_logger_log_int
	vmovss	22004(%rsp), %xmm0      # 4-byte Reload
	movq	23080(%rsp), %rcx       # 8-byte Reload
	movl	22804(%rsp), %eax       # 4-byte Reload
	vmovss	%xmm0, 23468(%rsp)      # 4-byte Spill
	movq	%rcx, 23456(%rsp)       # 8-byte Spill
	movl	%eax, 23452(%rsp)       # 4-byte Spill
	jmp	.LBB2_2
.Ltmp91:
.LBB2_7:                                #   in Loop: Header=BB2_4 Depth=4
	movabsq	$24601, %rdi            # imm = 0x6019
	movabsq	$64, %rax
	movabsq	$1, %rcx
	leaq	.L.str306, %r8
	movabsq	$0, %rdx
	leaq	.L.str307, %rsi
	leaq	.L.str304, %r9
	leaq	.L.str305, %r10
	movabsq	$2, %r11
	leaq	atoi, %rbx
	leaq	.L.str302, %r14
	leaq	.L.str303, %r15
	movabsq	$126, %r12
	leaq	.L.str299, %r13
	leaq	.L.str300, %rbp
	movq	%rax, 21992(%rsp)       # 8-byte Spill
	leaq	.L.str301, %rax
	movq	%rax, 21984(%rsp)       # 8-byte Spill
	movabsq	$49, %rax
	movq	%rsi, 21976(%rsp)       # 8-byte Spill
	movl	$0, %esi
	movl	%esi, 21972(%rsp)       # 4-byte Spill
	movl	$1, %esi
	movq	%rax, 21960(%rsp)       # 8-byte Spill
	movabsq	$19134, %rax            # imm = 0x4ABE
	movq	%rax, 21952(%rsp)       # 8-byte Spill
	leaq	.L.str297, %rax
	movq	%rax, 21944(%rsp)       # 8-byte Spill
	leaq	.L.str298, %rax
	movq	%rax, 21936(%rsp)       # 8-byte Spill
	leaq	optarg, %rax
	movq	%rax, 21928(%rsp)       # 8-byte Spill
	leaq	.L.str295, %rax
	movq	%rax, 21920(%rsp)       # 8-byte Spill
	leaq	.L.str296, %rax
	movq	%rax, 21912(%rsp)       # 8-byte Spill
	leaq	.L.str292, %rax
	movq	%rax, 21904(%rsp)       # 8-byte Spill
	leaq	.L.str293, %rax
	movq	%rax, 21896(%rsp)       # 8-byte Spill
	leaq	.L.str294, %rax
	movq	%rax, 21888(%rsp)       # 8-byte Spill
	movabsq	$27, %rax
	.loc	3 126 35                # kmeans.c:126:35
	movq	%rdi, 21880(%rsp)       # 8-byte Spill
	movq	%r12, %rdi
	movq	%rax, 21872(%rsp)       # 8-byte Spill
	movq	21904(%rsp), %rax       # 8-byte Reload
	movl	%esi, 21868(%rsp)       # 4-byte Spill
	movq	%rax, %rsi
	movq	21896(%rsp), %rax       # 8-byte Reload
	movq	%rdx, 21856(%rsp)       # 8-byte Spill
	movq	%rax, %rdx
	movq	21888(%rsp), %rax       # 8-byte Reload
	movq	%rcx, 21848(%rsp)       # 8-byte Spill
	movq	%rax, %rcx
	movq	21872(%rsp), %rax       # 8-byte Reload
	movq	%r8, 21840(%rsp)        # 8-byte Spill
	movq	%rax, %r8
	movl	21972(%rsp), %eax       # 4-byte Reload
	movq	%r9, 21832(%rsp)        # 8-byte Spill
	movl	%eax, %r9d
	movl	$1, (%rsp)
	movq	%rbp, 21824(%rsp)       # 8-byte Spill
	movq	%r15, 21816(%rsp)       # 8-byte Spill
	movq	%r14, 21808(%rsp)       # 8-byte Spill
	movq	%r12, 21800(%rsp)       # 8-byte Spill
	movq	%r13, 21792(%rsp)       # 8-byte Spill
	movq	%rbx, 21784(%rsp)       # 8-byte Spill
	movq	%r10, 21776(%rsp)       # 8-byte Spill
	movq	%r11, 21768(%rsp)       # 8-byte Spill
	callq	trace_logger_log0
	movq	21848(%rsp), %rdi       # 8-byte Reload
	movq	21992(%rsp), %rsi       # 8-byte Reload
	movq	21928(%rsp), %rdx       # 8-byte Reload
	movq	21848(%rsp), %rcx       # 8-byte Reload
	movq	21920(%rsp), %r8        # 8-byte Reload
	movq	21856(%rsp), %r9        # 8-byte Reload
	movq	21912(%rsp), %r10       # 8-byte Reload
	movq	%r10, (%rsp)
	callq	trace_logger_log_int
	movq	optarg, %rcx
	movq	21952(%rsp), %rdi       # 8-byte Reload
	movq	21992(%rsp), %rsi       # 8-byte Reload
	movq	%rcx, %rdx
	movq	21848(%rsp), %r8        # 8-byte Reload
	movq	%rcx, 21760(%rsp)       # 8-byte Spill
	movq	%r8, %rcx
	movq	21944(%rsp), %r8        # 8-byte Reload
	movq	21856(%rsp), %r9        # 8-byte Reload
	movq	21936(%rsp), %r10       # 8-byte Reload
	movq	%r10, (%rsp)
	callq	trace_logger_log_int
	movq	21800(%rsp), %rdi       # 8-byte Reload
	movq	21792(%rsp), %rsi       # 8-byte Reload
	movq	21824(%rsp), %rdx       # 8-byte Reload
	movq	21984(%rsp), %rcx       # 8-byte Reload
	movq	21960(%rsp), %r8        # 8-byte Reload
	movl	21972(%rsp), %r9d       # 4-byte Reload
	movl	$1, (%rsp)
	callq	trace_logger_log0
	movq	21768(%rsp), %rdi       # 8-byte Reload
	movq	21992(%rsp), %rsi       # 8-byte Reload
	movq	21784(%rsp), %rdx       # 8-byte Reload
	movq	21848(%rsp), %rcx       # 8-byte Reload
	movq	21808(%rsp), %r8        # 8-byte Reload
	movq	21856(%rsp), %r9        # 8-byte Reload
	movq	21816(%rsp), %r10       # 8-byte Reload
	movq	%r10, (%rsp)
	callq	trace_logger_log_int
	movq	21848(%rsp), %rdi       # 8-byte Reload
	movq	21992(%rsp), %rsi       # 8-byte Reload
	movq	21760(%rsp), %rdx       # 8-byte Reload
	movq	21848(%rsp), %rcx       # 8-byte Reload
	movq	21832(%rsp), %r8        # 8-byte Reload
	movq	21856(%rsp), %r9        # 8-byte Reload
	movq	21776(%rsp), %r10       # 8-byte Reload
	movq	%r10, (%rsp)
	callq	trace_logger_log_int
	movq	21880(%rsp), %rdi       # 8-byte Reload
	movq	21992(%rsp), %rsi       # 8-byte Reload
	movq	21760(%rsp), %rdx       # 8-byte Reload
	movq	21848(%rsp), %rcx       # 8-byte Reload
	movq	21840(%rsp), %r8        # 8-byte Reload
	movq	21856(%rsp), %r9        # 8-byte Reload
	movq	21976(%rsp), %r10       # 8-byte Reload
	movq	%r10, (%rsp)
	callq	trace_logger_log_int
	movq	21760(%rsp), %rdi       # 8-byte Reload
	callq	atoi
	movabsq	$1, %rcx
	movabsq	$0, %rdx
	leaq	.L.str313, %r8
	leaq	.L.str314, %rsi
	movabsq	$127, %rdi
	leaq	.L.str310, %r9
	leaq	.L.str311, %r10
	leaq	.L.str312, %r11
	movabsq	$2, %rbx
	movl	$0, %ebp
	movl	$1, %r14d
	movabsq	$19134, %r15            # imm = 0x4ABE
	movabsq	$32, %r12
	leaq	.L.str308, %r13
	movq	%rcx, 21752(%rsp)       # 8-byte Spill
	leaq	.L.str309, %rcx
	movl	%eax, 21748(%rsp)       # 4-byte Spill
	movl	%eax, %eax
                                        # kill: RAX<def> EAX<kill>
	movq	%rdi, 21736(%rsp)       # 8-byte Spill
	movq	%r15, %rdi
	movq	%rsi, 21728(%rsp)       # 8-byte Spill
	movq	%r12, %rsi
	movq	%rdx, 21720(%rsp)       # 8-byte Spill
	movq	%rax, %rdx
	movq	21752(%rsp), %rax       # 8-byte Reload
	movq	%rcx, 21712(%rsp)       # 8-byte Spill
	movq	%rax, %rcx
	movq	%r8, 21704(%rsp)        # 8-byte Spill
	movq	%r13, %r8
	movq	21720(%rsp), %r15       # 8-byte Reload
	movq	%r9, 21696(%rsp)        # 8-byte Spill
	movq	%r15, %r9
	movq	21712(%rsp), %r12       # 8-byte Reload
	movq	%r12, (%rsp)
	movq	%r11, 21688(%rsp)       # 8-byte Spill
	movq	%rbx, 21680(%rsp)       # 8-byte Spill
	movq	%r10, 21672(%rsp)       # 8-byte Spill
	movl	%r14d, 21668(%rsp)      # 4-byte Spill
	movl	%ebp, 21664(%rsp)       # 4-byte Spill
	callq	trace_logger_log_int
.Ltmp92:
	#DEBUG_VALUE: main:nclusters <- [RSP+21748]
	.loc	3 127 0                 # kmeans.c:127:0
	movq	21736(%rsp), %rdi       # 8-byte Reload
	movq	21696(%rsp), %rsi       # 8-byte Reload
	movq	21672(%rsp), %rdx       # 8-byte Reload
	movq	21688(%rsp), %rcx       # 8-byte Reload
	movq	21680(%rsp), %r8        # 8-byte Reload
	movl	21664(%rsp), %r9d       # 4-byte Reload
	movl	$1, (%rsp)
	callq	trace_logger_log0
	movq	21752(%rsp), %rdi       # 8-byte Reload
	movq	21720(%rsp), %rsi       # 8-byte Reload
	movq	21720(%rsp), %rdx       # 8-byte Reload
	movq	21752(%rsp), %rcx       # 8-byte Reload
	movq	21704(%rsp), %r8        # 8-byte Reload
	movq	21720(%rsp), %r9        # 8-byte Reload
	movq	21728(%rsp), %rax       # 8-byte Reload
	movq	%rax, (%rsp)
	callq	trace_logger_log_int
	movl	21748(%rsp), %ebp       # 4-byte Reload
	movl	%ebp, 22812(%rsp)       # 4-byte Spill
	jmp	.LBB2_4
.Ltmp93:
.LBB2_8:
	movabsq	$24601, %rdi            # imm = 0x6019
	movabsq	$64, %rax
	movabsq	$1, %rcx
	leaq	.L.str329, %r8
	movabsq	$0, %rdx
	leaq	.L.str330, %rsi
	leaq	.L.str327, %r9
	leaq	.L.str328, %r10
	movabsq	$2, %r11
	leaq	usage, %rbx
	leaq	.L.str325, %r14
	leaq	.L.str326, %r15
	movabsq	$128, %r12
	leaq	.L.str322, %r13
	leaq	.L.str323, %rbp
	movq	%rax, 21656(%rsp)       # 8-byte Spill
	leaq	.L.str324, %rax
	movq	%rax, 21648(%rsp)       # 8-byte Spill
	movabsq	$49, %rax
	movq	%rsi, 21640(%rsp)       # 8-byte Spill
	movl	$0, %esi
	movl	%esi, 21636(%rsp)       # 4-byte Spill
	movl	$1, %esi
	movq	%rax, 21624(%rsp)       # 8-byte Spill
	movabsq	$19134, %rax            # imm = 0x4ABE
	movq	%rax, 21616(%rsp)       # 8-byte Spill
	leaq	.L.str320, %rax
	movq	%rax, 21608(%rsp)       # 8-byte Spill
	leaq	.L.str321, %rax
	movq	%rax, 21600(%rsp)       # 8-byte Spill
	leaq	.L.str318, %rax
	movq	%rax, 21592(%rsp)       # 8-byte Spill
	leaq	.L.str319, %rax
	movq	%rax, 21584(%rsp)       # 8-byte Spill
	leaq	.L.str315, %rax
	movq	%rax, 21576(%rsp)       # 8-byte Spill
	leaq	.L.str316, %rax
	movq	%rax, 21568(%rsp)       # 8-byte Spill
	leaq	.L.str317, %rax
	movq	%rax, 21560(%rsp)       # 8-byte Spill
	movabsq	$27, %rax
	.loc	3 128 0                 # kmeans.c:128:0
	movq	%rdi, 21552(%rsp)       # 8-byte Spill
	movq	%r12, %rdi
	movq	%rax, 21544(%rsp)       # 8-byte Spill
	movq	21576(%rsp), %rax       # 8-byte Reload
	movl	%esi, 21540(%rsp)       # 4-byte Spill
	movq	%rax, %rsi
	movq	21568(%rsp), %rax       # 8-byte Reload
	movq	%rdx, 21528(%rsp)       # 8-byte Spill
	movq	%rax, %rdx
	movq	21560(%rsp), %rax       # 8-byte Reload
	movq	%rcx, 21520(%rsp)       # 8-byte Spill
	movq	%rax, %rcx
	movq	21544(%rsp), %rax       # 8-byte Reload
	movq	%r8, 21512(%rsp)        # 8-byte Spill
	movq	%rax, %r8
	movl	21636(%rsp), %eax       # 4-byte Reload
	movq	%r9, 21504(%rsp)        # 8-byte Spill
	movl	%eax, %r9d
	movl	$1, (%rsp)
	movq	%rbp, 21496(%rsp)       # 8-byte Spill
	movq	%r15, 21488(%rsp)       # 8-byte Spill
	movq	%r14, 21480(%rsp)       # 8-byte Spill
	movq	%r12, 21472(%rsp)       # 8-byte Spill
	movq	%r13, 21464(%rsp)       # 8-byte Spill
	movq	%rbx, 21456(%rsp)       # 8-byte Spill
	movq	%r10, 21448(%rsp)       # 8-byte Spill
	movq	%r11, 21440(%rsp)       # 8-byte Spill
	callq	trace_logger_log0
	movq	21520(%rsp), %rdi       # 8-byte Reload
	movq	21656(%rsp), %rsi       # 8-byte Reload
	movq	24032(%rsp), %rdx       # 8-byte Reload
	movq	21520(%rsp), %rcx       # 8-byte Reload
	movq	21592(%rsp), %r8        # 8-byte Reload
	movq	21528(%rsp), %r9        # 8-byte Reload
	movq	21584(%rsp), %r10       # 8-byte Reload
	movq	%r10, (%rsp)
	callq	trace_logger_log_int
	movq	24032(%rsp), %rcx       # 8-byte Reload
	movq	(%rcx), %rdx
	movq	21616(%rsp), %rdi       # 8-byte Reload
	movq	21656(%rsp), %rsi       # 8-byte Reload
	movq	%rdx, 21432(%rsp)       # 8-byte Spill
	movq	21520(%rsp), %rcx       # 8-byte Reload
	movq	21608(%rsp), %r8        # 8-byte Reload
	movq	21528(%rsp), %r9        # 8-byte Reload
	movq	21600(%rsp), %r10       # 8-byte Reload
	movq	%r10, (%rsp)
	callq	trace_logger_log_int
	movq	21472(%rsp), %rdi       # 8-byte Reload
	movq	21464(%rsp), %rsi       # 8-byte Reload
	movq	21496(%rsp), %rdx       # 8-byte Reload
	movq	21648(%rsp), %rcx       # 8-byte Reload
	movq	21624(%rsp), %r8        # 8-byte Reload
	movl	21636(%rsp), %r9d       # 4-byte Reload
	movl	$1, (%rsp)
	callq	trace_logger_log0
	movq	21440(%rsp), %rdi       # 8-byte Reload
	movq	21656(%rsp), %rsi       # 8-byte Reload
	movq	21456(%rsp), %rdx       # 8-byte Reload
	movq	21520(%rsp), %rcx       # 8-byte Reload
	movq	21480(%rsp), %r8        # 8-byte Reload
	movq	21528(%rsp), %r9        # 8-byte Reload
	movq	21488(%rsp), %r10       # 8-byte Reload
	movq	%r10, (%rsp)
	callq	trace_logger_log_int
	movq	21520(%rsp), %rdi       # 8-byte Reload
	movq	21656(%rsp), %rsi       # 8-byte Reload
	movq	21432(%rsp), %rdx       # 8-byte Reload
	movq	21520(%rsp), %rcx       # 8-byte Reload
	movq	21504(%rsp), %r8        # 8-byte Reload
	movq	21528(%rsp), %r9        # 8-byte Reload
	movq	21448(%rsp), %r10       # 8-byte Reload
	movq	%r10, (%rsp)
	callq	trace_logger_log_int
	movq	21552(%rsp), %rdi       # 8-byte Reload
	movq	21656(%rsp), %rsi       # 8-byte Reload
	movq	21432(%rsp), %rdx       # 8-byte Reload
	movq	21520(%rsp), %rcx       # 8-byte Reload
	movq	21512(%rsp), %r8        # 8-byte Reload
	movq	21528(%rsp), %r9        # 8-byte Reload
	movq	21640(%rsp), %r10       # 8-byte Reload
	movq	%r10, (%rsp)
	callq	trace_logger_log_int
	movq	21432(%rsp), %rdi       # 8-byte Reload
	callq	usage
	movabsq	$-1, %rdi
	leaq	.L.str331, %rsi
	leaq	.L.str332, %rdx
	leaq	.L.str333, %rcx
	movabsq	$7, %r8
	movl	$0, %r9d
	movl	$1, %eax
	movl	$1, (%rsp)
	movl	%eax, 21428(%rsp)       # 4-byte Spill
	callq	trace_logger_log0
.LBB2_9:
	movabsq	$24601, %rdi            # imm = 0x6019
	movabsq	$64, %rax
	movabsq	$1, %rcx
	leaq	.L.str348, %r8
	movabsq	$0, %rdx
	leaq	.L.str349, %rsi
	leaq	.L.str346, %r9
	leaq	.L.str347, %r10
	movabsq	$2, %r11
	leaq	usage, %rbx
	leaq	.L.str344, %r14
	leaq	.L.str345, %r15
	movabsq	$130, %r12
	leaq	.L.str341, %r13
	leaq	.L.str342, %rbp
	movq	%rax, 21416(%rsp)       # 8-byte Spill
	leaq	.L.str343, %rax
	movq	%rax, 21408(%rsp)       # 8-byte Spill
	movabsq	$49, %rax
	movq	%rsi, 21400(%rsp)       # 8-byte Spill
	movl	$0, %esi
	movl	%esi, 21396(%rsp)       # 4-byte Spill
	movl	$1, %esi
	movq	%rax, 21384(%rsp)       # 8-byte Spill
	movabsq	$19134, %rax            # imm = 0x4ABE
	movq	%rax, 21376(%rsp)       # 8-byte Spill
	leaq	.L.str339, %rax
	movq	%rax, 21368(%rsp)       # 8-byte Spill
	leaq	.L.str340, %rax
	movq	%rax, 21360(%rsp)       # 8-byte Spill
	leaq	.L.str337, %rax
	movq	%rax, 21352(%rsp)       # 8-byte Spill
	leaq	.L.str338, %rax
	movq	%rax, 21344(%rsp)       # 8-byte Spill
	leaq	.L.str334, %rax
	movq	%rax, 21336(%rsp)       # 8-byte Spill
	leaq	.L.str335, %rax
	movq	%rax, 21328(%rsp)       # 8-byte Spill
	leaq	.L.str336, %rax
	movq	%rax, 21320(%rsp)       # 8-byte Spill
	movabsq	$27, %rax
	.loc	3 130 0                 # kmeans.c:130:0
	movq	%rdi, 21312(%rsp)       # 8-byte Spill
	movq	%r12, %rdi
	movq	%rax, 21304(%rsp)       # 8-byte Spill
	movq	21336(%rsp), %rax       # 8-byte Reload
	movl	%esi, 21300(%rsp)       # 4-byte Spill
	movq	%rax, %rsi
	movq	21328(%rsp), %rax       # 8-byte Reload
	movq	%rdx, 21288(%rsp)       # 8-byte Spill
	movq	%rax, %rdx
	movq	21320(%rsp), %rax       # 8-byte Reload
	movq	%rcx, 21280(%rsp)       # 8-byte Spill
	movq	%rax, %rcx
	movq	21304(%rsp), %rax       # 8-byte Reload
	movq	%r8, 21272(%rsp)        # 8-byte Spill
	movq	%rax, %r8
	movl	21396(%rsp), %eax       # 4-byte Reload
	movq	%r9, 21264(%rsp)        # 8-byte Spill
	movl	%eax, %r9d
	movl	$1, (%rsp)
	movq	%rbp, 21256(%rsp)       # 8-byte Spill
	movq	%r15, 21248(%rsp)       # 8-byte Spill
	movq	%r14, 21240(%rsp)       # 8-byte Spill
	movq	%r12, 21232(%rsp)       # 8-byte Spill
	movq	%r13, 21224(%rsp)       # 8-byte Spill
	movq	%rbx, 21216(%rsp)       # 8-byte Spill
	movq	%r10, 21208(%rsp)       # 8-byte Spill
	movq	%r11, 21200(%rsp)       # 8-byte Spill
	callq	trace_logger_log0
	movq	21280(%rsp), %rdi       # 8-byte Reload
	movq	21416(%rsp), %rsi       # 8-byte Reload
	movq	24032(%rsp), %rdx       # 8-byte Reload
	movq	21280(%rsp), %rcx       # 8-byte Reload
	movq	21352(%rsp), %r8        # 8-byte Reload
	movq	21288(%rsp), %r9        # 8-byte Reload
	movq	21344(%rsp), %r10       # 8-byte Reload
	movq	%r10, (%rsp)
	callq	trace_logger_log_int
	movq	24032(%rsp), %rcx       # 8-byte Reload
	movq	(%rcx), %rdx
	movq	21376(%rsp), %rdi       # 8-byte Reload
	movq	21416(%rsp), %rsi       # 8-byte Reload
	movq	%rdx, 21192(%rsp)       # 8-byte Spill
	movq	21280(%rsp), %rcx       # 8-byte Reload
	movq	21368(%rsp), %r8        # 8-byte Reload
	movq	21288(%rsp), %r9        # 8-byte Reload
	movq	21360(%rsp), %r10       # 8-byte Reload
	movq	%r10, (%rsp)
	callq	trace_logger_log_int
	movq	21232(%rsp), %rdi       # 8-byte Reload
	movq	21224(%rsp), %rsi       # 8-byte Reload
	movq	21256(%rsp), %rdx       # 8-byte Reload
	movq	21408(%rsp), %rcx       # 8-byte Reload
	movq	21384(%rsp), %r8        # 8-byte Reload
	movl	21396(%rsp), %r9d       # 4-byte Reload
	movl	$1, (%rsp)
	callq	trace_logger_log0
	movq	21200(%rsp), %rdi       # 8-byte Reload
	movq	21416(%rsp), %rsi       # 8-byte Reload
	movq	21216(%rsp), %rdx       # 8-byte Reload
	movq	21280(%rsp), %rcx       # 8-byte Reload
	movq	21240(%rsp), %r8        # 8-byte Reload
	movq	21288(%rsp), %r9        # 8-byte Reload
	movq	21248(%rsp), %r10       # 8-byte Reload
	movq	%r10, (%rsp)
	callq	trace_logger_log_int
	movq	21280(%rsp), %rdi       # 8-byte Reload
	movq	21416(%rsp), %rsi       # 8-byte Reload
	movq	21192(%rsp), %rdx       # 8-byte Reload
	movq	21280(%rsp), %rcx       # 8-byte Reload
	movq	21264(%rsp), %r8        # 8-byte Reload
	movq	21288(%rsp), %r9        # 8-byte Reload
	movq	21208(%rsp), %r10       # 8-byte Reload
	movq	%r10, (%rsp)
	callq	trace_logger_log_int
	movq	21312(%rsp), %rdi       # 8-byte Reload
	movq	21416(%rsp), %rsi       # 8-byte Reload
	movq	21192(%rsp), %rdx       # 8-byte Reload
	movq	21280(%rsp), %rcx       # 8-byte Reload
	movq	21272(%rsp), %r8        # 8-byte Reload
	movq	21288(%rsp), %r9        # 8-byte Reload
	movq	21400(%rsp), %r10       # 8-byte Reload
	movq	%r10, (%rsp)
	callq	trace_logger_log_int
	movq	21192(%rsp), %rdi       # 8-byte Reload
	callq	usage
	movabsq	$-1, %rdi
	leaq	.L.str350, %rsi
	leaq	.L.str351, %rdx
	leaq	.L.str352, %rcx
	movabsq	$7, %r8
	movl	$0, %r9d
	movl	$1, %eax
	movl	$1, (%rsp)
	movl	%eax, 21188(%rsp)       # 4-byte Spill
	callq	trace_logger_log0
.Ltmp94:
.LBB2_10:
	movabsq	$1, %rax
	leaq	.L.str369, %r8
	movabsq	$0, %rcx
	leaq	.L.str370, %rdx
	movabsq	$2, %rsi
	leaq	.L.str367, %rdi
	leaq	.L.str368, %r9
	movabsq	$3, %r10
	leaq	.L.str365, %r11
	leaq	.L.str366, %rbx
	movabsq	$135, %r14
	leaq	.L.str362, %r15
	leaq	.L.str363, %r12
	leaq	.L.str364, %r13
	movl	$0, %ebp
	movq	%rsi, 21176(%rsp)       # 8-byte Spill
	movl	$1, %esi
	movq	%rax, 21168(%rsp)       # 8-byte Spill
	movabsq	$19134, %rax            # imm = 0x4ABE
	movq	%rax, 21160(%rsp)       # 8-byte Spill
	leaq	.L.str360, %rax
	movq	%rax, 21152(%rsp)       # 8-byte Spill
	leaq	.L.str361, %rax
	movq	%rax, 21144(%rsp)       # 8-byte Spill
	movabsq	$64, %rax
	movq	%rax, 21136(%rsp)       # 8-byte Spill
	leaq	.L.str358, %rax
	movq	%rax, 21128(%rsp)       # 8-byte Spill
	leaq	.L.str359, %rax
	movq	%rax, 21120(%rsp)       # 8-byte Spill
	leaq	.L.str356, %rax
	movq	%rax, 21112(%rsp)       # 8-byte Spill
	leaq	.L.str357, %rax
	movq	%rax, 21104(%rsp)       # 8-byte Spill
	leaq	.L.str353, %rax
	movq	%rax, 21096(%rsp)       # 8-byte Spill
	leaq	.L.str354, %rax
	movq	%rax, 21088(%rsp)       # 8-byte Spill
	leaq	.L.str355, %rax
	movq	%rax, 21080(%rsp)       # 8-byte Spill
	movabsq	$46, %rax
	.loc	3 135 0                 # kmeans.c:135:0
.Ltmp95:
	movq	%rdi, 21072(%rsp)       # 8-byte Spill
	movq	%r14, %rdi
	movq	%rax, 21064(%rsp)       # 8-byte Spill
	movq	21096(%rsp), %rax       # 8-byte Reload
	movl	%esi, 21060(%rsp)       # 4-byte Spill
	movq	%rax, %rsi
	movq	21088(%rsp), %rax       # 8-byte Reload
	movq	%rdx, 21048(%rsp)       # 8-byte Spill
	movq	%rax, %rdx
	movq	21080(%rsp), %rax       # 8-byte Reload
	movq	%rcx, 21040(%rsp)       # 8-byte Spill
	movq	%rax, %rcx
	movq	21064(%rsp), %rax       # 8-byte Reload
	movq	%r8, 21032(%rsp)        # 8-byte Spill
	movq	%rax, %r8
	movq	%r9, 21024(%rsp)        # 8-byte Spill
	movl	%ebp, %r9d
	movl	$1, (%rsp)
	movq	%r14, 21016(%rsp)       # 8-byte Spill
	movq	%r15, 21008(%rsp)       # 8-byte Spill
	movq	%r12, 21000(%rsp)       # 8-byte Spill
	movq	%r13, 20992(%rsp)       # 8-byte Spill
	movl	%ebp, 20988(%rsp)       # 4-byte Spill
	movq	%rbx, 20976(%rsp)       # 8-byte Spill
	movq	%r10, 20968(%rsp)       # 8-byte Spill
	movq	%r11, 20960(%rsp)       # 8-byte Spill
	callq	trace_logger_log0
	movq	21176(%rsp), %rdi       # 8-byte Reload
	movq	21136(%rsp), %rsi       # 8-byte Reload
	movq	21040(%rsp), %rdx       # 8-byte Reload
	movq	21040(%rsp), %rcx       # 8-byte Reload
	movq	21112(%rsp), %r8        # 8-byte Reload
	movq	21040(%rsp), %r9        # 8-byte Reload
	movq	21104(%rsp), %rax       # 8-byte Reload
	movq	%rax, (%rsp)
	callq	trace_logger_log_int
	movq	21168(%rsp), %rdi       # 8-byte Reload
	movq	21136(%rsp), %rsi       # 8-byte Reload
	movq	23080(%rsp), %rdx       # 8-byte Reload
	movq	21168(%rsp), %rcx       # 8-byte Reload
	movq	21128(%rsp), %r8        # 8-byte Reload
	movq	21040(%rsp), %r9        # 8-byte Reload
	movq	21120(%rsp), %rax       # 8-byte Reload
	movq	%rax, (%rsp)
	callq	trace_logger_log_int
	movq	23080(%rsp), %rax       # 8-byte Reload
	cmpq	$0, %rax
	sete	%al
	movb	%al, %cl
	andb	$1, %cl
	movzbl	%cl, %ebp
	movl	%ebp, %edx
	movq	21160(%rsp), %rdi       # 8-byte Reload
	movq	21168(%rsp), %rsi       # 8-byte Reload
	movq	21168(%rsp), %rcx       # 8-byte Reload
	movq	21152(%rsp), %r8        # 8-byte Reload
	movq	21040(%rsp), %r9        # 8-byte Reload
	movq	21144(%rsp), %r10       # 8-byte Reload
	movq	%r10, (%rsp)
	movb	%al, 20959(%rsp)        # 1-byte Spill
	callq	trace_logger_log_int
	movq	21016(%rsp), %rdi       # 8-byte Reload
	movq	21008(%rsp), %rsi       # 8-byte Reload
	movq	21000(%rsp), %rdx       # 8-byte Reload
	movq	20992(%rsp), %rcx       # 8-byte Reload
	movq	21176(%rsp), %r8        # 8-byte Reload
	movl	20988(%rsp), %r9d       # 4-byte Reload
	movl	$1, (%rsp)
	callq	trace_logger_log0
	movq	20968(%rsp), %rdi       # 8-byte Reload
	movq	21040(%rsp), %rsi       # 8-byte Reload
	movq	21040(%rsp), %rdx       # 8-byte Reload
	movq	21168(%rsp), %rcx       # 8-byte Reload
	movq	20960(%rsp), %r8        # 8-byte Reload
	movq	21040(%rsp), %r9        # 8-byte Reload
	movq	20976(%rsp), %r10       # 8-byte Reload
	movq	%r10, (%rsp)
	callq	trace_logger_log_int
	movq	21176(%rsp), %rdi       # 8-byte Reload
	movq	21040(%rsp), %rsi       # 8-byte Reload
	movq	21040(%rsp), %rdx       # 8-byte Reload
	movq	21168(%rsp), %rcx       # 8-byte Reload
	movq	21072(%rsp), %r8        # 8-byte Reload
	movq	21040(%rsp), %r9        # 8-byte Reload
	movq	21024(%rsp), %r10       # 8-byte Reload
	movq	%r10, (%rsp)
	callq	trace_logger_log_int
	movb	20959(%rsp), %al        # 1-byte Reload
	andb	$1, %al
	movzbl	%al, %ebp
	movl	%ebp, %edx
	movq	21168(%rsp), %rdi       # 8-byte Reload
	movq	21168(%rsp), %rsi       # 8-byte Reload
	movq	21168(%rsp), %rcx       # 8-byte Reload
	movq	21032(%rsp), %r8        # 8-byte Reload
	movq	21040(%rsp), %r9        # 8-byte Reload
	movq	21048(%rsp), %r10       # 8-byte Reload
	movq	%r10, (%rsp)
	callq	trace_logger_log_int
	movb	20959(%rsp), %al        # 1-byte Reload
	testb	$1, %al
	jne	.LBB2_11
	jmp	.LBB2_12
.LBB2_11:
	movabsq	$24601, %rdi            # imm = 0x6019
	movabsq	$64, %rax
	movabsq	$1, %rcx
	leaq	.L.str385, %r8
	movabsq	$0, %rdx
	leaq	.L.str386, %rsi
	leaq	.L.str383, %r9
	leaq	.L.str384, %r10
	movabsq	$2, %r11
	leaq	usage, %rbx
	leaq	.L.str381, %r14
	leaq	.L.str382, %r15
	movabsq	$135, %r12
	leaq	.L.str378, %r13
	leaq	.L.str379, %rbp
	movq	%rax, 20944(%rsp)       # 8-byte Spill
	leaq	.L.str380, %rax
	movq	%rax, 20936(%rsp)       # 8-byte Spill
	movabsq	$49, %rax
	movq	%rsi, 20928(%rsp)       # 8-byte Spill
	movl	$0, %esi
	movl	%esi, 20924(%rsp)       # 4-byte Spill
	movl	$1, %esi
	movq	%rax, 20912(%rsp)       # 8-byte Spill
	movabsq	$19134, %rax            # imm = 0x4ABE
	movq	%rax, 20904(%rsp)       # 8-byte Spill
	leaq	.L.str376, %rax
	movq	%rax, 20896(%rsp)       # 8-byte Spill
	leaq	.L.str377, %rax
	movq	%rax, 20888(%rsp)       # 8-byte Spill
	leaq	.L.str374, %rax
	movq	%rax, 20880(%rsp)       # 8-byte Spill
	leaq	.L.str375, %rax
	movq	%rax, 20872(%rsp)       # 8-byte Spill
	leaq	.L.str371, %rax
	movq	%rax, 20864(%rsp)       # 8-byte Spill
	leaq	.L.str372, %rax
	movq	%rax, 20856(%rsp)       # 8-byte Spill
	leaq	.L.str373, %rax
	movq	%rax, 20848(%rsp)       # 8-byte Spill
	movabsq	$27, %rax
	movq	%rdi, 20840(%rsp)       # 8-byte Spill
	movq	%r12, %rdi
	movq	%rax, 20832(%rsp)       # 8-byte Spill
	movq	20864(%rsp), %rax       # 8-byte Reload
	movl	%esi, 20828(%rsp)       # 4-byte Spill
	movq	%rax, %rsi
	movq	20856(%rsp), %rax       # 8-byte Reload
	movq	%rdx, 20816(%rsp)       # 8-byte Spill
	movq	%rax, %rdx
	movq	20848(%rsp), %rax       # 8-byte Reload
	movq	%rcx, 20808(%rsp)       # 8-byte Spill
	movq	%rax, %rcx
	movq	20832(%rsp), %rax       # 8-byte Reload
	movq	%r8, 20800(%rsp)        # 8-byte Spill
	movq	%rax, %r8
	movl	20924(%rsp), %eax       # 4-byte Reload
	movq	%r9, 20792(%rsp)        # 8-byte Spill
	movl	%eax, %r9d
	movl	$1, (%rsp)
	movq	%rbp, 20784(%rsp)       # 8-byte Spill
	movq	%r15, 20776(%rsp)       # 8-byte Spill
	movq	%r14, 20768(%rsp)       # 8-byte Spill
	movq	%r12, 20760(%rsp)       # 8-byte Spill
	movq	%r13, 20752(%rsp)       # 8-byte Spill
	movq	%rbx, 20744(%rsp)       # 8-byte Spill
	movq	%r10, 20736(%rsp)       # 8-byte Spill
	movq	%r11, 20728(%rsp)       # 8-byte Spill
	callq	trace_logger_log0
	movq	20808(%rsp), %rdi       # 8-byte Reload
	movq	20944(%rsp), %rsi       # 8-byte Reload
	movq	24032(%rsp), %rdx       # 8-byte Reload
	movq	20808(%rsp), %rcx       # 8-byte Reload
	movq	20880(%rsp), %r8        # 8-byte Reload
	movq	20816(%rsp), %r9        # 8-byte Reload
	movq	20872(%rsp), %r10       # 8-byte Reload
	movq	%r10, (%rsp)
	callq	trace_logger_log_int
	movq	24032(%rsp), %rcx       # 8-byte Reload
	movq	(%rcx), %rdx
	movq	20904(%rsp), %rdi       # 8-byte Reload
	movq	20944(%rsp), %rsi       # 8-byte Reload
	movq	%rdx, 20720(%rsp)       # 8-byte Spill
	movq	20808(%rsp), %rcx       # 8-byte Reload
	movq	20896(%rsp), %r8        # 8-byte Reload
	movq	20816(%rsp), %r9        # 8-byte Reload
	movq	20888(%rsp), %r10       # 8-byte Reload
	movq	%r10, (%rsp)
	callq	trace_logger_log_int
	movq	20760(%rsp), %rdi       # 8-byte Reload
	movq	20752(%rsp), %rsi       # 8-byte Reload
	movq	20784(%rsp), %rdx       # 8-byte Reload
	movq	20936(%rsp), %rcx       # 8-byte Reload
	movq	20912(%rsp), %r8        # 8-byte Reload
	movl	20924(%rsp), %r9d       # 4-byte Reload
	movl	$1, (%rsp)
	callq	trace_logger_log0
	movq	20728(%rsp), %rdi       # 8-byte Reload
	movq	20944(%rsp), %rsi       # 8-byte Reload
	movq	20744(%rsp), %rdx       # 8-byte Reload
	movq	20808(%rsp), %rcx       # 8-byte Reload
	movq	20768(%rsp), %r8        # 8-byte Reload
	movq	20816(%rsp), %r9        # 8-byte Reload
	movq	20776(%rsp), %r10       # 8-byte Reload
	movq	%r10, (%rsp)
	callq	trace_logger_log_int
	movq	20808(%rsp), %rdi       # 8-byte Reload
	movq	20944(%rsp), %rsi       # 8-byte Reload
	movq	20720(%rsp), %rdx       # 8-byte Reload
	movq	20808(%rsp), %rcx       # 8-byte Reload
	movq	20792(%rsp), %r8        # 8-byte Reload
	movq	20816(%rsp), %r9        # 8-byte Reload
	movq	20736(%rsp), %r10       # 8-byte Reload
	movq	%r10, (%rsp)
	callq	trace_logger_log_int
	movq	20840(%rsp), %rdi       # 8-byte Reload
	movq	20944(%rsp), %rsi       # 8-byte Reload
	movq	20720(%rsp), %rdx       # 8-byte Reload
	movq	20808(%rsp), %rcx       # 8-byte Reload
	movq	20800(%rsp), %r8        # 8-byte Reload
	movq	20816(%rsp), %r9        # 8-byte Reload
	movq	20928(%rsp), %r10       # 8-byte Reload
	movq	%r10, (%rsp)
	callq	trace_logger_log_int
	movq	20720(%rsp), %rdi       # 8-byte Reload
	callq	usage
	movabsq	$-1, %rdi
	leaq	.L.str387, %rsi
	leaq	.L.str388, %rdx
	leaq	.L.str389, %rcx
	movabsq	$7, %r8
	movl	$0, %r9d
	movl	$1, %eax
	movl	$1, (%rsp)
	movl	%eax, 20716(%rsp)       # 4-byte Spill
	callq	trace_logger_log0
.Ltmp96:
.LBB2_12:
	movabsq	$1, %rax
	leaq	.L.str420, %r8
	movabsq	$0, %rcx
	leaq	.L.str421, %rdx
	movabsq	$2, %rsi
	leaq	.L.str418, %rdi
	leaq	.L.str419, %r9
	movabsq	$3, %r10
	leaq	.L.str416, %r11
	leaq	.L.str417, %rbx
	movabsq	$141, %r14
	leaq	.L.str413, %r15
	leaq	.L.str414, %r12
	leaq	.L.str415, %r13
	movl	$0, %ebp
	movq	%rsi, 20704(%rsp)       # 8-byte Spill
	movl	$1, %esi
	movq	%rax, 20696(%rsp)       # 8-byte Spill
	movabsq	$19134, %rax            # imm = 0x4ABE
	movq	%rax, 20688(%rsp)       # 8-byte Spill
	leaq	.L.str411, %rax
	movq	%rax, 20680(%rsp)       # 8-byte Spill
	leaq	.L.str412, %rax
	movq	%rax, 20672(%rsp)       # 8-byte Spill
	movabsq	$32, %rax
	movq	%rax, 20664(%rsp)       # 8-byte Spill
	leaq	.L.str409, %rax
	movq	%rax, 20656(%rsp)       # 8-byte Spill
	leaq	.L.str410, %rax
	movq	%rax, 20648(%rsp)       # 8-byte Spill
	leaq	.L.str407, %rax
	movq	%rax, 20640(%rsp)       # 8-byte Spill
	leaq	.L.str408, %rax
	movq	%rax, 20632(%rsp)       # 8-byte Spill
	leaq	.L.str404, %rax
	movq	%rax, 20624(%rsp)       # 8-byte Spill
	leaq	.L.str405, %rax
	movq	%rax, 20616(%rsp)       # 8-byte Spill
	leaq	.L.str406, %rax
	movq	%rax, 20608(%rsp)       # 8-byte Spill
	movabsq	$46, %rax
	movq	%rax, 20600(%rsp)       # 8-byte Spill
	leaq	.L.str402, %rax
	movq	%rax, 20592(%rsp)       # 8-byte Spill
	leaq	.L.str403, %rax
	movq	%rax, 20584(%rsp)       # 8-byte Spill
	movabsq	$64, %rax
	movq	%rax, 20576(%rsp)       # 8-byte Spill
	leaq	.L.str400, %rax
	movq	%rax, 20568(%rsp)       # 8-byte Spill
	leaq	.L.str401, %rax
	movq	%rax, 20560(%rsp)       # 8-byte Spill
	leaq	25564(%rsp), %rax
	movq	%rax, 20552(%rsp)       # 8-byte Spill
	movabsq	$137, %rax
	movq	%rax, 20544(%rsp)       # 8-byte Spill
	leaq	.L.str397, %rax
	movq	%rax, 20536(%rsp)       # 8-byte Spill
	leaq	.L.str398, %rax
	movq	%rax, 20528(%rsp)       # 8-byte Spill
	leaq	.L.str399, %rax
	movq	%rax, 20520(%rsp)       # 8-byte Spill
	movabsq	$28, %rax
	movq	%rax, 20512(%rsp)       # 8-byte Spill
	leaq	.L.str395, %rax
	movq	%rax, 20504(%rsp)       # 8-byte Spill
	leaq	.L.str396, %rax
	movq	%rax, 20496(%rsp)       # 8-byte Spill
	leaq	.L.str393, %rax
	movq	%rax, 20488(%rsp)       # 8-byte Spill
	leaq	.L.str394, %rax
	movq	%rax, 20480(%rsp)       # 8-byte Spill
	leaq	25560(%rsp), %rax
	movq	%rax, 20472(%rsp)       # 8-byte Spill
	leaq	.L.str390, %rax
	movq	%rax, 20464(%rsp)       # 8-byte Spill
	leaq	.L.str391, %rax
	movq	%rax, 20456(%rsp)       # 8-byte Spill
	leaq	.L.str392, %rax
.Ltmp97:
	#DEBUG_VALUE: main:numObjects <- 0
	.loc	3 137 0                 # kmeans.c:137:0
	movq	%rax, 20448(%rsp)       # 8-byte Spill
	movq	20544(%rsp), %rax       # 8-byte Reload
	movq	%rdi, 20440(%rsp)       # 8-byte Spill
	movq	%rax, %rdi
	movq	20464(%rsp), %rax       # 8-byte Reload
	movl	%esi, 20436(%rsp)       # 4-byte Spill
	movq	%rax, %rsi
	movq	20456(%rsp), %rax       # 8-byte Reload
	movq	%rdx, 20424(%rsp)       # 8-byte Spill
	movq	%rax, %rdx
	movq	20448(%rsp), %rax       # 8-byte Reload
	movq	%rcx, 20416(%rsp)       # 8-byte Spill
	movq	%rax, %rcx
	movq	20512(%rsp), %rax       # 8-byte Reload
	movq	%r8, 20408(%rsp)        # 8-byte Spill
	movq	%rax, %r8
	movq	%r9, 20400(%rsp)        # 8-byte Spill
	movl	%ebp, %r9d
	movl	$1, (%rsp)
	movq	%r14, 20392(%rsp)       # 8-byte Spill
	movq	%r15, 20384(%rsp)       # 8-byte Spill
	movq	%r12, 20376(%rsp)       # 8-byte Spill
	movq	%r13, 20368(%rsp)       # 8-byte Spill
	movl	%ebp, 20364(%rsp)       # 4-byte Spill
	movq	%rbx, 20352(%rsp)       # 8-byte Spill
	movq	%r10, 20344(%rsp)       # 8-byte Spill
	movq	%r11, 20336(%rsp)       # 8-byte Spill
	callq	trace_logger_log0
	movq	20704(%rsp), %rdi       # 8-byte Reload
	movq	20576(%rsp), %rsi       # 8-byte Reload
	movq	20472(%rsp), %rdx       # 8-byte Reload
	movq	20696(%rsp), %rcx       # 8-byte Reload
	movq	20488(%rsp), %r8        # 8-byte Reload
	movq	20416(%rsp), %r9        # 8-byte Reload
	movq	20480(%rsp), %rax       # 8-byte Reload
	movq	%rax, (%rsp)
	callq	trace_logger_log_int
	movq	20696(%rsp), %rdi       # 8-byte Reload
	movq	20664(%rsp), %rsi       # 8-byte Reload
	movq	20416(%rsp), %rdx       # 8-byte Reload
	movq	20416(%rsp), %rcx       # 8-byte Reload
	movq	20504(%rsp), %r8        # 8-byte Reload
	movq	20416(%rsp), %r9        # 8-byte Reload
	movq	20496(%rsp), %rax       # 8-byte Reload
	movq	%rax, (%rsp)
	callq	trace_logger_log_int
	movl	$0, 25560(%rsp)
.Ltmp98:
	#DEBUG_VALUE: main:numAttributes <- 0
	movq	20544(%rsp), %rdi       # 8-byte Reload
	movq	20536(%rsp), %rsi       # 8-byte Reload
	movq	20528(%rsp), %rdx       # 8-byte Reload
	movq	20520(%rsp), %rcx       # 8-byte Reload
	movq	20512(%rsp), %r8        # 8-byte Reload
	movl	20364(%rsp), %r9d       # 4-byte Reload
	movl	$1, (%rsp)
	callq	trace_logger_log0
	movq	20704(%rsp), %rdi       # 8-byte Reload
	movq	20576(%rsp), %rsi       # 8-byte Reload
	movq	20552(%rsp), %rdx       # 8-byte Reload
	movq	20696(%rsp), %rcx       # 8-byte Reload
	movq	20568(%rsp), %r8        # 8-byte Reload
	movq	20416(%rsp), %r9        # 8-byte Reload
	movq	20560(%rsp), %rax       # 8-byte Reload
	movq	%rax, (%rsp)
	callq	trace_logger_log_int
	movq	20696(%rsp), %rdi       # 8-byte Reload
	movq	20664(%rsp), %rsi       # 8-byte Reload
	movq	20416(%rsp), %rdx       # 8-byte Reload
	movq	20416(%rsp), %rcx       # 8-byte Reload
	movq	20592(%rsp), %r8        # 8-byte Reload
	movq	20416(%rsp), %r9        # 8-byte Reload
	movq	20584(%rsp), %rax       # 8-byte Reload
	movq	%rax, (%rsp)
	callq	trace_logger_log_int
	movl	$0, 25564(%rsp)
	.loc	3 141 0                 # kmeans.c:141:0
.Ltmp99:
	movq	20392(%rsp), %rdi       # 8-byte Reload
	movq	20624(%rsp), %rsi       # 8-byte Reload
	movq	20616(%rsp), %rdx       # 8-byte Reload
	movq	20608(%rsp), %rcx       # 8-byte Reload
	movq	20600(%rsp), %r8        # 8-byte Reload
	movl	20364(%rsp), %r9d       # 4-byte Reload
	movl	$1, (%rsp)
	callq	trace_logger_log0
	movq	20704(%rsp), %rdi       # 8-byte Reload
	movq	20664(%rsp), %rsi       # 8-byte Reload
	movq	20416(%rsp), %rdx       # 8-byte Reload
	movq	20416(%rsp), %rcx       # 8-byte Reload
	movq	20640(%rsp), %r8        # 8-byte Reload
	movq	20416(%rsp), %r9        # 8-byte Reload
	movq	20632(%rsp), %rax       # 8-byte Reload
	movq	%rax, (%rsp)
	callq	trace_logger_log_int
	movl	23564(%rsp), %ebp       # 4-byte Reload
	movl	%ebp, %esi
	movl	%esi, %edx
	movq	20696(%rsp), %rdi       # 8-byte Reload
	movq	20664(%rsp), %rsi       # 8-byte Reload
	movq	20696(%rsp), %rcx       # 8-byte Reload
	movq	20656(%rsp), %r8        # 8-byte Reload
	movq	20416(%rsp), %r9        # 8-byte Reload
	movq	20648(%rsp), %rax       # 8-byte Reload
	movq	%rax, (%rsp)
	callq	trace_logger_log_int
	movl	23564(%rsp), %ebp       # 4-byte Reload
	cmpl	$0, %ebp
	sete	%al
	movb	%al, %cl
	andb	$1, %cl
	movzbl	%cl, %ecx
	movl	%ecx, %edx
	movq	20688(%rsp), %rdi       # 8-byte Reload
	movq	20696(%rsp), %rsi       # 8-byte Reload
	movq	20696(%rsp), %rcx       # 8-byte Reload
	movq	20680(%rsp), %r8        # 8-byte Reload
	movq	20416(%rsp), %r9        # 8-byte Reload
	movq	20672(%rsp), %r10       # 8-byte Reload
	movq	%r10, (%rsp)
	movb	%al, 20335(%rsp)        # 1-byte Spill
	callq	trace_logger_log_int
	movq	20392(%rsp), %rdi       # 8-byte Reload
	movq	20384(%rsp), %rsi       # 8-byte Reload
	movq	20376(%rsp), %rdx       # 8-byte Reload
	movq	20368(%rsp), %rcx       # 8-byte Reload
	movq	20704(%rsp), %r8        # 8-byte Reload
	movl	20364(%rsp), %r9d       # 4-byte Reload
	movl	$1, (%rsp)
	callq	trace_logger_log0
	movq	20344(%rsp), %rdi       # 8-byte Reload
	movq	20416(%rsp), %rsi       # 8-byte Reload
	movq	20416(%rsp), %rdx       # 8-byte Reload
	movq	20696(%rsp), %rcx       # 8-byte Reload
	movq	20336(%rsp), %r8        # 8-byte Reload
	movq	20416(%rsp), %r9        # 8-byte Reload
	movq	20352(%rsp), %r10       # 8-byte Reload
	movq	%r10, (%rsp)
	callq	trace_logger_log_int
	movq	20704(%rsp), %rdi       # 8-byte Reload
	movq	20416(%rsp), %rsi       # 8-byte Reload
	movq	20416(%rsp), %rdx       # 8-byte Reload
	movq	20696(%rsp), %rcx       # 8-byte Reload
	movq	20440(%rsp), %r8        # 8-byte Reload
	movq	20416(%rsp), %r9        # 8-byte Reload
	movq	20400(%rsp), %r10       # 8-byte Reload
	movq	%r10, (%rsp)
	callq	trace_logger_log_int
	movb	20335(%rsp), %al        # 1-byte Reload
	andb	$1, %al
	movzbl	%al, %ebp
	movl	%ebp, %edx
	movq	20696(%rsp), %rdi       # 8-byte Reload
	movq	20696(%rsp), %rsi       # 8-byte Reload
	movq	20696(%rsp), %rcx       # 8-byte Reload
	movq	20408(%rsp), %r8        # 8-byte Reload
	movq	20416(%rsp), %r9        # 8-byte Reload
	movq	20424(%rsp), %r10       # 8-byte Reload
	movq	%r10, (%rsp)
	callq	trace_logger_log_int
	movb	20335(%rsp), %al        # 1-byte Reload
	testb	$1, %al
	jne	.LBB2_19
# BB#13:
	movl	$0, %eax
	leaq	.L.str2173, %rdx
	movabsq	$24601, %rcx            # imm = 0x6019
	movabsq	$32, %rsi
	movabsq	$0, %rdi
	movabsq	$1, %r8
	leaq	.L.str433, %r9
	leaq	.L.str434, %r10
	movabsq	$2, %r11
	leaq	.L.str431, %rbx
	leaq	.L.str432, %r14
	movabsq	$64, %r15
	leaq	.L.str429, %r12
	leaq	.L.str430, %r13
	leaq	.L.str427, %rbp
	movq	%rcx, 20320(%rsp)       # 8-byte Spill
	leaq	.L.str428, %rcx
	movq	%rcx, 20312(%rsp)       # 8-byte Spill
	movabsq	$4, %rcx
	movq	%rcx, 20304(%rsp)       # 8-byte Spill
	leaq	open, %rcx
	movq	%rcx, 20296(%rsp)       # 8-byte Spill
	leaq	.L.str425, %rcx
	movq	%rcx, 20288(%rsp)       # 8-byte Spill
	leaq	.L.str426, %rcx
	movq	%rcx, 20280(%rsp)       # 8-byte Spill
	movabsq	$143, %rcx
	movq	%rcx, 20272(%rsp)       # 8-byte Spill
	leaq	.L.str422, %rcx
	movq	%rcx, 20264(%rsp)       # 8-byte Spill
	leaq	.L.str423, %rcx
	movq	%rcx, 20256(%rsp)       # 8-byte Spill
	leaq	.L.str424, %rcx
	movq	%rcx, 20248(%rsp)       # 8-byte Spill
	movabsq	$49, %rcx
	movl	%eax, 20244(%rsp)       # 4-byte Spill
	movl	$1, %eax
	.loc	3 143 0                 # kmeans.c:143:0
.Ltmp100:
	movq	%rcx, 20232(%rsp)       # 8-byte Spill
	movq	20272(%rsp), %rcx       # 8-byte Reload
	movq	%rdi, 20224(%rsp)       # 8-byte Spill
	movq	%rcx, %rdi
	movq	20264(%rsp), %rcx       # 8-byte Reload
	movq	%rsi, 20216(%rsp)       # 8-byte Spill
	movq	%rcx, %rsi
	movq	20256(%rsp), %rcx       # 8-byte Reload
	movq	%rdx, 20208(%rsp)       # 8-byte Spill
	movq	%rcx, %rdx
	movq	20248(%rsp), %rcx       # 8-byte Reload
	movq	%r8, 20200(%rsp)        # 8-byte Spill
	movq	20232(%rsp), %r8        # 8-byte Reload
	movl	%eax, 20196(%rsp)       # 4-byte Spill
	movl	20244(%rsp), %eax       # 4-byte Reload
	movq	%r9, 20184(%rsp)        # 8-byte Spill
	movl	%eax, %r9d
	movl	$1, (%rsp)
	movq	%r12, 20176(%rsp)       # 8-byte Spill
	movq	%r15, 20168(%rsp)       # 8-byte Spill
	movq	%r13, 20160(%rsp)       # 8-byte Spill
	movq	%rbp, 20152(%rsp)       # 8-byte Spill
	movq	%r14, 20144(%rsp)       # 8-byte Spill
	movq	%rbx, 20136(%rsp)       # 8-byte Spill
	movq	%r10, 20128(%rsp)       # 8-byte Spill
	movq	%r11, 20120(%rsp)       # 8-byte Spill
	callq	trace_logger_log0
	movq	20304(%rsp), %rdi       # 8-byte Reload
	movq	20168(%rsp), %rsi       # 8-byte Reload
	movq	20296(%rsp), %rdx       # 8-byte Reload
	movq	20200(%rsp), %rcx       # 8-byte Reload
	movq	20288(%rsp), %r8        # 8-byte Reload
	movq	20224(%rsp), %r9        # 8-byte Reload
	movq	20280(%rsp), %r10       # 8-byte Reload
	movq	%r10, (%rsp)
	callq	trace_logger_log_int
	movq	20200(%rsp), %rdi       # 8-byte Reload
	movq	20168(%rsp), %rsi       # 8-byte Reload
	movq	23080(%rsp), %rdx       # 8-byte Reload
	movq	20200(%rsp), %rcx       # 8-byte Reload
	movq	20152(%rsp), %r8        # 8-byte Reload
	movq	20224(%rsp), %r9        # 8-byte Reload
	movq	20312(%rsp), %r10       # 8-byte Reload
	movq	%r10, (%rsp)
	callq	trace_logger_log_int
	movq	20320(%rsp), %rdi       # 8-byte Reload
	movq	20168(%rsp), %rsi       # 8-byte Reload
	movq	23080(%rsp), %rdx       # 8-byte Reload
	movq	20200(%rsp), %rcx       # 8-byte Reload
	movq	20176(%rsp), %r8        # 8-byte Reload
	movq	20224(%rsp), %r9        # 8-byte Reload
	movq	20160(%rsp), %r10       # 8-byte Reload
	movq	%r10, (%rsp)
	callq	trace_logger_log_int
	movq	20120(%rsp), %rdi       # 8-byte Reload
	movq	20216(%rsp), %rsi       # 8-byte Reload
	movq	20224(%rsp), %rdx       # 8-byte Reload
	movq	20224(%rsp), %rcx       # 8-byte Reload
	movq	20136(%rsp), %r8        # 8-byte Reload
	movq	20224(%rsp), %r9        # 8-byte Reload
	movq	20144(%rsp), %r10       # 8-byte Reload
	movq	%r10, (%rsp)
	callq	trace_logger_log_int
	movq	20320(%rsp), %rdi       # 8-byte Reload
	movq	20216(%rsp), %rsi       # 8-byte Reload
	movq	20224(%rsp), %rdx       # 8-byte Reload
	movq	20200(%rsp), %rcx       # 8-byte Reload
	movq	20184(%rsp), %r8        # 8-byte Reload
	movq	20224(%rsp), %r9        # 8-byte Reload
	movq	20128(%rsp), %r10       # 8-byte Reload
	movq	%r10, (%rsp)
	callq	trace_logger_log_int
	movq	23080(%rsp), %rdi       # 8-byte Reload
	movl	20244(%rsp), %esi       # 4-byte Reload
	movq	20208(%rsp), %rdx       # 8-byte Reload
	movb	$0, %al
	callq	open
	movabsq	$1, %rcx
	leaq	.L.str453, %r8
	movabsq	$0, %rdx
	leaq	.L.str454, %rdi
	movabsq	$2, %r9
	leaq	.L.str451, %r10
	leaq	.L.str452, %r11
	movabsq	$3, %rbx
	leaq	.L.str449, %r14
	leaq	.L.str450, %r15
	movabsq	$143, %r12
	leaq	.L.str446, %rsi
	leaq	.L.str447, %r13
	leaq	.L.str448, %rbp
	movl	%eax, 20116(%rsp)       # 4-byte Spill
	movl	$0, %eax
	movl	%eax, 20112(%rsp)       # 4-byte Spill
	movl	$1, %eax
	movq	%rcx, 20104(%rsp)       # 8-byte Spill
	movabsq	$19134, %rcx            # imm = 0x4ABE
	movq	%rcx, 20096(%rsp)       # 8-byte Spill
	leaq	.L.str444, %rcx
	movq	%rcx, 20088(%rsp)       # 8-byte Spill
	leaq	.L.str445, %rcx
	movq	%rcx, 20080(%rsp)       # 8-byte Spill
	movabsq	$32, %rcx
	movq	%rcx, 20072(%rsp)       # 8-byte Spill
	leaq	.L.str442, %rcx
	movq	%rcx, 20064(%rsp)       # 8-byte Spill
	leaq	.L.str443, %rcx
	movq	%rcx, 20056(%rsp)       # 8-byte Spill
	movabsq	$4294967295, %rcx       # imm = 0xFFFFFFFF
	movq	%rcx, 20048(%rsp)       # 8-byte Spill
	leaq	.L.str440, %rcx
	movq	%rcx, 20040(%rsp)       # 8-byte Spill
	leaq	.L.str441, %rcx
	movq	%rcx, 20032(%rsp)       # 8-byte Spill
	leaq	.L.str437, %rcx
	movq	%rcx, 20024(%rsp)       # 8-byte Spill
	leaq	.L.str438, %rcx
	movq	%rcx, 20016(%rsp)       # 8-byte Spill
	leaq	.L.str439, %rcx
	movq	%rcx, 20008(%rsp)       # 8-byte Spill
	movabsq	$46, %rcx
	movq	%rcx, 20000(%rsp)       # 8-byte Spill
	leaq	.L.str435, %rcx
	movq	%rcx, 19992(%rsp)       # 8-byte Spill
	leaq	.L.str436, %rcx
	movl	%eax, 19988(%rsp)       # 4-byte Spill
	movl	20116(%rsp), %eax       # 4-byte Reload
	movl	%eax, %eax
                                        # kill: RAX<def> EAX<kill>
	movq	%rax, 19976(%rsp)       # 8-byte Spill
	movq	20096(%rsp), %rax       # 8-byte Reload
	movq	%rdi, 19968(%rsp)       # 8-byte Spill
	movq	%rax, %rdi
	movq	20072(%rsp), %rax       # 8-byte Reload
	movq	%rsi, 19960(%rsp)       # 8-byte Spill
	movq	%rax, %rsi
	movq	19976(%rsp), %rax       # 8-byte Reload
	movq	%rdx, 19952(%rsp)       # 8-byte Spill
	movq	%rax, %rdx
	movq	20104(%rsp), %rax       # 8-byte Reload
	movq	%rcx, 19944(%rsp)       # 8-byte Spill
	movq	%rax, %rcx
	movq	19992(%rsp), %rax       # 8-byte Reload
	movq	%r8, 19936(%rsp)        # 8-byte Spill
	movq	%rax, %r8
	movq	19952(%rsp), %rax       # 8-byte Reload
	movq	%r9, 19928(%rsp)        # 8-byte Spill
	movq	%rax, %r9
	movq	19944(%rsp), %rax       # 8-byte Reload
	movq	%rax, (%rsp)
	movq	%rbp, 19920(%rsp)       # 8-byte Spill
	movq	%r12, 19912(%rsp)       # 8-byte Spill
	movq	%r15, 19904(%rsp)       # 8-byte Spill
	movq	%r13, 19896(%rsp)       # 8-byte Spill
	movq	%r14, 19888(%rsp)       # 8-byte Spill
	movq	%r10, 19880(%rsp)       # 8-byte Spill
	movq	%r11, 19872(%rsp)       # 8-byte Spill
	movq	%rbx, 19864(%rsp)       # 8-byte Spill
	callq	trace_logger_log_int
.Ltmp101:
	#DEBUG_VALUE: infile <- [RSP+20116]
	movq	19912(%rsp), %rdi       # 8-byte Reload
	movq	20024(%rsp), %rsi       # 8-byte Reload
	movq	20016(%rsp), %rdx       # 8-byte Reload
	movq	20008(%rsp), %rcx       # 8-byte Reload
	movq	20000(%rsp), %r8        # 8-byte Reload
	movl	20112(%rsp), %r9d       # 4-byte Reload
	movl	$1, (%rsp)
	callq	trace_logger_log0
	movq	19928(%rsp), %rdi       # 8-byte Reload
	movq	20072(%rsp), %rsi       # 8-byte Reload
	movq	20048(%rsp), %rdx       # 8-byte Reload
	movq	19952(%rsp), %rcx       # 8-byte Reload
	movq	20040(%rsp), %r8        # 8-byte Reload
	movq	19952(%rsp), %r9        # 8-byte Reload
	movq	20032(%rsp), %rax       # 8-byte Reload
	movq	%rax, (%rsp)
	callq	trace_logger_log_int
	movl	20116(%rsp), %esi       # 4-byte Reload
	movl	%esi, %esi
	movl	%esi, %edx
	movq	20104(%rsp), %rdi       # 8-byte Reload
	movq	20072(%rsp), %rsi       # 8-byte Reload
	movq	20104(%rsp), %rcx       # 8-byte Reload
	movq	20064(%rsp), %r8        # 8-byte Reload
	movq	19952(%rsp), %r9        # 8-byte Reload
	movq	20056(%rsp), %rax       # 8-byte Reload
	movq	%rax, (%rsp)
	callq	trace_logger_log_int
	movl	20116(%rsp), %esi       # 4-byte Reload
	cmpl	$-1, %esi
	sete	%al
	movb	%al, %cl
	andb	$1, %cl
	movzbl	%cl, %ecx
	movl	%ecx, %edx
	movq	20096(%rsp), %rdi       # 8-byte Reload
	movq	20104(%rsp), %rsi       # 8-byte Reload
	movq	20104(%rsp), %rcx       # 8-byte Reload
	movq	20088(%rsp), %r8        # 8-byte Reload
	movq	19952(%rsp), %r9        # 8-byte Reload
	movq	20080(%rsp), %r10       # 8-byte Reload
	movq	%r10, (%rsp)
	movb	%al, 19863(%rsp)        # 1-byte Spill
	callq	trace_logger_log_int
	movq	19912(%rsp), %rdi       # 8-byte Reload
	movq	19960(%rsp), %rsi       # 8-byte Reload
	movq	19896(%rsp), %rdx       # 8-byte Reload
	movq	19920(%rsp), %rcx       # 8-byte Reload
	movq	19928(%rsp), %r8        # 8-byte Reload
	movl	20112(%rsp), %r9d       # 4-byte Reload
	movl	$1, (%rsp)
	callq	trace_logger_log0
	movq	19864(%rsp), %rdi       # 8-byte Reload
	movq	19952(%rsp), %rsi       # 8-byte Reload
	movq	19952(%rsp), %rdx       # 8-byte Reload
	movq	20104(%rsp), %rcx       # 8-byte Reload
	movq	19888(%rsp), %r8        # 8-byte Reload
	movq	19952(%rsp), %r9        # 8-byte Reload
	movq	19904(%rsp), %r10       # 8-byte Reload
	movq	%r10, (%rsp)
	callq	trace_logger_log_int
	movq	19928(%rsp), %rdi       # 8-byte Reload
	movq	19952(%rsp), %rsi       # 8-byte Reload
	movq	19952(%rsp), %rdx       # 8-byte Reload
	movq	20104(%rsp), %rcx       # 8-byte Reload
	movq	19880(%rsp), %r8        # 8-byte Reload
	movq	19952(%rsp), %r9        # 8-byte Reload
	movq	19872(%rsp), %r10       # 8-byte Reload
	movq	%r10, (%rsp)
	callq	trace_logger_log_int
	movb	19863(%rsp), %al        # 1-byte Reload
	andb	$1, %al
	movzbl	%al, %eax
	movl	%eax, %edx
	movq	20104(%rsp), %rdi       # 8-byte Reload
	movq	20104(%rsp), %rsi       # 8-byte Reload
	movq	20104(%rsp), %rcx       # 8-byte Reload
	movq	19936(%rsp), %r8        # 8-byte Reload
	movq	19952(%rsp), %r9        # 8-byte Reload
	movq	19968(%rsp), %r10       # 8-byte Reload
	movq	%r10, (%rsp)
	callq	trace_logger_log_int
	movb	19863(%rsp), %al        # 1-byte Reload
	testb	$1, %al
	jne	.LBB2_14
	jmp	.LBB2_15
.Ltmp102:
.LBB2_14:
	leaq	.L.str3174, %rax
	movabsq	$24601, %rcx            # imm = 0x6019
	movabsq	$64, %rdx
	movabsq	$1, %rsi
	leaq	.L.str473, %r8
	movabsq	$0, %rdi
	leaq	.L.str474, %r9
	movabsq	$2, %r10
	leaq	.L.str471, %r11
	leaq	.L.str472, %rbx
	leaq	.L.str469, %r14
	leaq	.L.str470, %r15
	leaq	.L.str467, %r12
	leaq	.L.str468, %r13
	movabsq	$4, %rbp
	movq	%rax, 19848(%rsp)       # 8-byte Spill
	leaq	fprintf, %rax
	movq	%rax, 19840(%rsp)       # 8-byte Spill
	leaq	.L.str465, %rax
	movq	%rax, 19832(%rsp)       # 8-byte Spill
	leaq	.L.str466, %rax
	movq	%rax, 19824(%rsp)       # 8-byte Spill
	movabsq	$144, %rax
	movq	%rax, 19816(%rsp)       # 8-byte Spill
	leaq	.L.str462, %rax
	movq	%rax, 19808(%rsp)       # 8-byte Spill
	leaq	.L.str463, %rax
	movq	%rax, 19800(%rsp)       # 8-byte Spill
	leaq	.L.str464, %rax
	movq	%rax, 19792(%rsp)       # 8-byte Spill
	movabsq	$49, %rax
	movq	%rsi, 19784(%rsp)       # 8-byte Spill
	movl	$0, %esi
	movl	%esi, 19780(%rsp)       # 4-byte Spill
	movl	$1, %esi
	movq	%rax, 19768(%rsp)       # 8-byte Spill
	movabsq	$19134, %rax            # imm = 0x4ABE
	movq	%rax, 19760(%rsp)       # 8-byte Spill
	leaq	.L.str460, %rax
	movq	%rax, 19752(%rsp)       # 8-byte Spill
	leaq	.L.str461, %rax
	movq	%rax, 19744(%rsp)       # 8-byte Spill
	leaq	stderr, %rax
	movq	%rax, 19736(%rsp)       # 8-byte Spill
	leaq	.L.str458, %rax
	movq	%rax, 19728(%rsp)       # 8-byte Spill
	leaq	.L.str459, %rax
	movq	%rax, 19720(%rsp)       # 8-byte Spill
	leaq	.L.str455, %rax
	movq	%rax, 19712(%rsp)       # 8-byte Spill
	leaq	.L.str456, %rax
	movq	%rax, 19704(%rsp)       # 8-byte Spill
	leaq	.L.str457, %rax
	movq	%rax, 19696(%rsp)       # 8-byte Spill
	movabsq	$27, %rax
	.loc	3 144 0                 # kmeans.c:144:0
.Ltmp103:
	movq	%rax, 19688(%rsp)       # 8-byte Spill
	movq	19816(%rsp), %rax       # 8-byte Reload
	movq	%rdi, 19680(%rsp)       # 8-byte Spill
	movq	%rax, %rdi
	movq	19712(%rsp), %rax       # 8-byte Reload
	movl	%esi, 19676(%rsp)       # 4-byte Spill
	movq	%rax, %rsi
	movq	19704(%rsp), %rax       # 8-byte Reload
	movq	%rdx, 19664(%rsp)       # 8-byte Spill
	movq	%rax, %rdx
	movq	19696(%rsp), %rax       # 8-byte Reload
	movq	%rcx, 19656(%rsp)       # 8-byte Spill
	movq	%rax, %rcx
	movq	19688(%rsp), %rax       # 8-byte Reload
	movq	%r8, 19648(%rsp)        # 8-byte Spill
	movq	%rax, %r8
	movl	19780(%rsp), %eax       # 4-byte Reload
	movq	%r9, 19640(%rsp)        # 8-byte Spill
	movl	%eax, %r9d
	movl	$1, (%rsp)
	movq	%r15, 19632(%rsp)       # 8-byte Spill
	movq	%r12, 19624(%rsp)       # 8-byte Spill
	movq	%r13, 19616(%rsp)       # 8-byte Spill
	movq	%r14, 19608(%rsp)       # 8-byte Spill
	movq	%rbp, 19600(%rsp)       # 8-byte Spill
	movq	%rbx, 19592(%rsp)       # 8-byte Spill
	movq	%r10, 19584(%rsp)       # 8-byte Spill
	movq	%r11, 19576(%rsp)       # 8-byte Spill
	callq	trace_logger_log0
	movq	19784(%rsp), %rdi       # 8-byte Reload
	movq	19664(%rsp), %rsi       # 8-byte Reload
	movq	19736(%rsp), %rdx       # 8-byte Reload
	movq	19784(%rsp), %rcx       # 8-byte Reload
	movq	19728(%rsp), %r8        # 8-byte Reload
	movq	19680(%rsp), %r9        # 8-byte Reload
	movq	19720(%rsp), %r10       # 8-byte Reload
	movq	%r10, (%rsp)
	callq	trace_logger_log_int
	movq	stderr, %rcx
	movq	19760(%rsp), %rdi       # 8-byte Reload
	movq	19664(%rsp), %rsi       # 8-byte Reload
	movq	%rcx, %rdx
	movq	19784(%rsp), %r8        # 8-byte Reload
	movq	%rcx, 19568(%rsp)       # 8-byte Spill
	movq	%r8, %rcx
	movq	19752(%rsp), %r8        # 8-byte Reload
	movq	19680(%rsp), %r9        # 8-byte Reload
	movq	19744(%rsp), %r10       # 8-byte Reload
	movq	%r10, (%rsp)
	callq	trace_logger_log_int
	movq	19816(%rsp), %rdi       # 8-byte Reload
	movq	19808(%rsp), %rsi       # 8-byte Reload
	movq	19800(%rsp), %rdx       # 8-byte Reload
	movq	19792(%rsp), %rcx       # 8-byte Reload
	movq	19768(%rsp), %r8        # 8-byte Reload
	movl	19780(%rsp), %r9d       # 4-byte Reload
	movl	$1, (%rsp)
	callq	trace_logger_log0
	movq	19600(%rsp), %rdi       # 8-byte Reload
	movq	19664(%rsp), %rsi       # 8-byte Reload
	movq	19840(%rsp), %rdx       # 8-byte Reload
	movq	19784(%rsp), %rcx       # 8-byte Reload
	movq	19832(%rsp), %r8        # 8-byte Reload
	movq	19680(%rsp), %r9        # 8-byte Reload
	movq	19824(%rsp), %r10       # 8-byte Reload
	movq	%r10, (%rsp)
	callq	trace_logger_log_int
	movq	19784(%rsp), %rdi       # 8-byte Reload
	movq	19664(%rsp), %rsi       # 8-byte Reload
	movq	19568(%rsp), %rdx       # 8-byte Reload
	movq	19784(%rsp), %rcx       # 8-byte Reload
	movq	19624(%rsp), %r8        # 8-byte Reload
	movq	19680(%rsp), %r9        # 8-byte Reload
	movq	19616(%rsp), %r10       # 8-byte Reload
	movq	%r10, (%rsp)
	callq	trace_logger_log_int
	movq	19656(%rsp), %rdi       # 8-byte Reload
	movq	19664(%rsp), %rsi       # 8-byte Reload
	movq	19568(%rsp), %rdx       # 8-byte Reload
	movq	19784(%rsp), %rcx       # 8-byte Reload
	movq	19608(%rsp), %r8        # 8-byte Reload
	movq	19680(%rsp), %r9        # 8-byte Reload
	movq	19632(%rsp), %r10       # 8-byte Reload
	movq	%r10, (%rsp)
	callq	trace_logger_log_int
	movq	19584(%rsp), %rdi       # 8-byte Reload
	movq	19664(%rsp), %rsi       # 8-byte Reload
	movq	19848(%rsp), %rdx       # 8-byte Reload
	movq	19680(%rsp), %rcx       # 8-byte Reload
	movq	19576(%rsp), %r8        # 8-byte Reload
	movq	19680(%rsp), %r9        # 8-byte Reload
	movq	19592(%rsp), %r10       # 8-byte Reload
	movq	%r10, (%rsp)
	callq	trace_logger_log_int
	movq	19656(%rsp), %rdi       # 8-byte Reload
	movq	19664(%rsp), %rsi       # 8-byte Reload
	movq	19848(%rsp), %rdx       # 8-byte Reload
	movq	19784(%rsp), %rcx       # 8-byte Reload
	movq	19648(%rsp), %r8        # 8-byte Reload
	movq	19680(%rsp), %r9        # 8-byte Reload
	movq	19640(%rsp), %r10       # 8-byte Reload
	movq	%r10, (%rsp)
	callq	trace_logger_log_int
	movq	19568(%rsp), %rdi       # 8-byte Reload
	movq	19848(%rsp), %rsi       # 8-byte Reload
	movq	23080(%rsp), %rdx       # 8-byte Reload
	movb	$0, %al
	callq	fprintf
	movl	$1, %edi
	movabsq	$24601, %rcx            # imm = 0x6019
	movabsq	$32, %rdx
	movabsq	$1, %rsi
	leaq	.L.str484, %r8
	movabsq	$0, %r9
	leaq	.L.str485, %r10
	leaq	.L.str482, %r11
	leaq	.L.str483, %rbx
	movabsq	$2, %r14
	movabsq	$64, %r15
	leaq	exit, %r12
	leaq	.L.str480, %r13
	leaq	.L.str481, %rbp
	movq	%rcx, 19560(%rsp)       # 8-byte Spill
	movabsq	$145, %rcx
	movq	%rcx, 19552(%rsp)       # 8-byte Spill
	leaq	.L.str477, %rcx
	movq	%rcx, 19544(%rsp)       # 8-byte Spill
	leaq	.L.str478, %rcx
	movq	%rcx, 19536(%rsp)       # 8-byte Spill
	leaq	.L.str479, %rcx
	movq	%rcx, 19528(%rsp)       # 8-byte Spill
	movabsq	$49, %rcx
	movl	%eax, 19524(%rsp)       # 4-byte Spill
	movl	$0, %eax
	movq	%rcx, 19512(%rsp)       # 8-byte Spill
	movabsq	$19134, %rcx            # imm = 0x4ABE
	movq	%rcx, 19504(%rsp)       # 8-byte Spill
	leaq	.L.str475, %rcx
	movq	%rcx, 19496(%rsp)       # 8-byte Spill
	leaq	.L.str476, %rcx
	.loc	3 145 0                 # kmeans.c:145:0
	movl	%eax, 19492(%rsp)       # 4-byte Spill
	movl	19524(%rsp), %eax       # 4-byte Reload
	movl	%eax, %eax
                                        # kill: RAX<def> EAX<kill>
	movq	%rax, 19480(%rsp)       # 8-byte Spill
	movq	19504(%rsp), %rax       # 8-byte Reload
	movl	%edi, 19476(%rsp)       # 4-byte Spill
	movq	%rax, %rdi
	movq	%rsi, 19464(%rsp)       # 8-byte Spill
	movq	%rdx, %rsi
	movq	19480(%rsp), %rax       # 8-byte Reload
	movq	%rdx, 19456(%rsp)       # 8-byte Spill
	movq	%rax, %rdx
	movq	19464(%rsp), %rax       # 8-byte Reload
	movq	%rcx, 19448(%rsp)       # 8-byte Spill
	movq	%rax, %rcx
	movq	19496(%rsp), %rax       # 8-byte Reload
	movq	%r8, 19440(%rsp)        # 8-byte Spill
	movq	%rax, %r8
	movq	%r9, 19432(%rsp)        # 8-byte Spill
	movq	19448(%rsp), %rax       # 8-byte Reload
	movq	%rax, (%rsp)
	movq	%rbp, 19424(%rsp)       # 8-byte Spill
	movq	%r15, 19416(%rsp)       # 8-byte Spill
	movq	%r12, 19408(%rsp)       # 8-byte Spill
	movq	%r13, 19400(%rsp)       # 8-byte Spill
	movq	%r14, 19392(%rsp)       # 8-byte Spill
	movq	%rbx, 19384(%rsp)       # 8-byte Spill
	movq	%r10, 19376(%rsp)       # 8-byte Spill
	movq	%r11, 19368(%rsp)       # 8-byte Spill
	callq	trace_logger_log_int
	movq	19552(%rsp), %rdi       # 8-byte Reload
	movq	19544(%rsp), %rsi       # 8-byte Reload
	movq	19536(%rsp), %rdx       # 8-byte Reload
	movq	19528(%rsp), %rcx       # 8-byte Reload
	movq	19512(%rsp), %r8        # 8-byte Reload
	movl	19492(%rsp), %r9d       # 4-byte Reload
	movl	$1, (%rsp)
	callq	trace_logger_log0
	movq	19392(%rsp), %rdi       # 8-byte Reload
	movq	19416(%rsp), %rsi       # 8-byte Reload
	movq	19408(%rsp), %rdx       # 8-byte Reload
	movq	19464(%rsp), %rcx       # 8-byte Reload
	movq	19400(%rsp), %r8        # 8-byte Reload
	movq	19432(%rsp), %r9        # 8-byte Reload
	movq	19424(%rsp), %rax       # 8-byte Reload
	movq	%rax, (%rsp)
	callq	trace_logger_log_int
	movq	19464(%rsp), %rdi       # 8-byte Reload
	movq	19456(%rsp), %rsi       # 8-byte Reload
	movq	19464(%rsp), %rdx       # 8-byte Reload
	movq	19432(%rsp), %rcx       # 8-byte Reload
	movq	19368(%rsp), %r8        # 8-byte Reload
	movq	19432(%rsp), %r9        # 8-byte Reload
	movq	19384(%rsp), %rax       # 8-byte Reload
	movq	%rax, (%rsp)
	callq	trace_logger_log_int
	movq	19560(%rsp), %rdi       # 8-byte Reload
	movq	19456(%rsp), %rsi       # 8-byte Reload
	movq	19464(%rsp), %rdx       # 8-byte Reload
	movq	19464(%rsp), %rcx       # 8-byte Reload
	movq	19440(%rsp), %r8        # 8-byte Reload
	movq	19432(%rsp), %r9        # 8-byte Reload
	movq	19376(%rsp), %rax       # 8-byte Reload
	movq	%rax, (%rsp)
	callq	trace_logger_log_int
	movl	19476(%rsp), %edi       # 4-byte Reload
	callq	exit
	movabsq	$145, %rdi
	leaq	.L.str486, %rsi
	leaq	.L.str487, %rdx
	leaq	.L.str488, %rcx
	movabsq	$7, %r8
	movl	$0, %r9d
	movl	$1, %r10d
	movl	$1, (%rsp)
	movl	%r10d, 19364(%rsp)      # 4-byte Spill
	callq	trace_logger_log0
.Ltmp104:
.LBB2_15:
	movabsq	$24601, %rdi            # imm = 0x6019
	movabsq	$64, %rax
	movabsq	$1, %rcx
	leaq	.L.str535, %r8
	movabsq	$0, %rdx
	leaq	.L.str536, %rsi
	leaq	.L.str533, %r9
	leaq	.L.str534, %r10
	movabsq	$2, %r11
	leaq	malloc, %rbx
	leaq	.L.str531, %r14
	leaq	.L.str532, %r15
	movabsq	$152, %r12
	leaq	.L.str528, %r13
	leaq	.L.str529, %rbp
	movq	%rax, 19352(%rsp)       # 8-byte Spill
	leaq	.L.str530, %rax
	movq	%rax, 19344(%rsp)       # 8-byte Spill
	movabsq	$49, %rax
	movq	%rsi, 19336(%rsp)       # 8-byte Spill
	movl	$0, %esi
	movl	%esi, 19332(%rsp)       # 4-byte Spill
	movl	$1, %esi
	movq	%rax, 19320(%rsp)       # 8-byte Spill
	movabsq	$19134, %rax            # imm = 0x4ABE
	movq	%rax, 19312(%rsp)       # 8-byte Spill
	leaq	.L.str526, %rax
	movq	%rax, 19304(%rsp)       # 8-byte Spill
	leaq	.L.str527, %rax
	movq	%rax, 19296(%rsp)       # 8-byte Spill
	leaq	.L.str524, %rax
	movq	%rax, 19288(%rsp)       # 8-byte Spill
	leaq	.L.str525, %rax
	movq	%rax, 19280(%rsp)       # 8-byte Spill
	leaq	.L.str522, %rax
	movq	%rax, 19272(%rsp)       # 8-byte Spill
	leaq	.L.str523, %rax
	movq	%rax, 19264(%rsp)       # 8-byte Spill
	leaq	.L.str519, %rax
	movq	%rax, 19256(%rsp)       # 8-byte Spill
	leaq	.L.str520, %rax
	movq	%rax, 19248(%rsp)       # 8-byte Spill
	leaq	.L.str521, %rax
	movq	%rax, 19240(%rsp)       # 8-byte Spill
	movabsq	$20, %rax
	movq	%rax, 19232(%rsp)       # 8-byte Spill
	leaq	.L.str517, %rax
	movq	%rax, 19224(%rsp)       # 8-byte Spill
	leaq	.L.str518, %rax
	movq	%rax, 19216(%rsp)       # 8-byte Spill
	movabsq	$32, %rax
	movq	%rax, 19208(%rsp)       # 8-byte Spill
	leaq	.L.str515, %rax
	movq	%rax, 19200(%rsp)       # 8-byte Spill
	leaq	.L.str516, %rax
	movq	%rax, 19192(%rsp)       # 8-byte Spill
	leaq	.L.str512, %rax
	movq	%rax, 19184(%rsp)       # 8-byte Spill
	leaq	.L.str513, %rax
	movq	%rax, 19176(%rsp)       # 8-byte Spill
	leaq	.L.str514, %rax
	movq	%rax, 19168(%rsp)       # 8-byte Spill
	movabsq	$35, %rax
	movq	%rax, 19160(%rsp)       # 8-byte Spill
	leaq	.L.str510, %rax
	movq	%rax, 19152(%rsp)       # 8-byte Spill
	leaq	.L.str511, %rax
	movq	%rax, 19144(%rsp)       # 8-byte Spill
	leaq	.L.str508, %rax
	movq	%rax, 19136(%rsp)       # 8-byte Spill
	leaq	.L.str509, %rax
	movq	%rax, 19128(%rsp)       # 8-byte Spill
	leaq	.L.str506, %rax
	movq	%rax, 19120(%rsp)       # 8-byte Spill
	leaq	.L.str507, %rax
	movq	%rax, 19112(%rsp)       # 8-byte Spill
	leaq	.L.str503, %rax
	movq	%rax, 19104(%rsp)       # 8-byte Spill
	leaq	.L.str504, %rax
	movq	%rax, 19096(%rsp)       # 8-byte Spill
	leaq	.L.str505, %rax
	movq	%rax, 19088(%rsp)       # 8-byte Spill
	movabsq	$12, %rax
	movq	%rax, 19080(%rsp)       # 8-byte Spill
	leaq	.L.str501, %rax
	movq	%rax, 19072(%rsp)       # 8-byte Spill
	leaq	.L.str502, %rax
	movq	%rax, 19064(%rsp)       # 8-byte Spill
	leaq	.L.str499, %rax
	movq	%rax, 19056(%rsp)       # 8-byte Spill
	leaq	.L.str500, %rax
	movq	%rax, 19048(%rsp)       # 8-byte Spill
	leaq	25564(%rsp), %rax
	movq	%rax, 19040(%rsp)       # 8-byte Spill
	leaq	.L.str496, %rax
	movq	%rax, 19032(%rsp)       # 8-byte Spill
	leaq	.L.str497, %rax
	movq	%rax, 19024(%rsp)       # 8-byte Spill
	leaq	.L.str498, %rax
	movq	%rax, 19016(%rsp)       # 8-byte Spill
	movabsq	$27, %rax
	movq	%rax, 19008(%rsp)       # 8-byte Spill
	leaq	.L.str494, %rax
	movq	%rax, 19000(%rsp)       # 8-byte Spill
	leaq	.L.str495, %rax
	movq	%rax, 18992(%rsp)       # 8-byte Spill
	leaq	.L.str492, %rax
	movq	%rax, 18984(%rsp)       # 8-byte Spill
	leaq	.L.str493, %rax
	movq	%rax, 18976(%rsp)       # 8-byte Spill
	leaq	25560(%rsp), %rax
	movq	%rax, 18968(%rsp)       # 8-byte Spill
	leaq	.L.str489, %rax
	movq	%rax, 18960(%rsp)       # 8-byte Spill
	leaq	.L.str490, %rax
	movq	%rax, 18952(%rsp)       # 8-byte Spill
	leaq	.L.str491, %rax
	movq	%rax, 18944(%rsp)       # 8-byte Spill
	movabsq	$4, %rax
	.loc	3 147 0                 # kmeans.c:147:0
	movl	%esi, 18940(%rsp)       # 4-byte Spill
	movl	20116(%rsp), %esi       # 4-byte Reload
	movq	%rdi, 18928(%rsp)       # 8-byte Spill
	movl	%esi, %edi
	movq	18968(%rsp), %rsi       # 8-byte Reload
	movq	%rdx, 18920(%rsp)       # 8-byte Spill
	movq	%rax, %rdx
	movq	%rax, 18912(%rsp)       # 8-byte Spill
	movb	$0, %al
	movq	%rbp, 18904(%rsp)       # 8-byte Spill
	movq	%r15, 18896(%rsp)       # 8-byte Spill
	movq	%rcx, 18888(%rsp)       # 8-byte Spill
	movq	%r8, 18880(%rsp)        # 8-byte Spill
	movq	%r12, 18872(%rsp)       # 8-byte Spill
	movq	%r13, 18864(%rsp)       # 8-byte Spill
	movq	%r9, 18856(%rsp)        # 8-byte Spill
	movq	%r10, 18848(%rsp)       # 8-byte Spill
	movq	%r11, 18840(%rsp)       # 8-byte Spill
	movq	%rbx, 18832(%rsp)       # 8-byte Spill
	movq	%r14, 18824(%rsp)       # 8-byte Spill
	callq	read
	.loc	3 148 0                 # kmeans.c:148:0
	movl	20116(%rsp), %edi       # 4-byte Reload
	movq	19040(%rsp), %rsi       # 8-byte Reload
	movq	18912(%rsp), %rdx       # 8-byte Reload
	movl	%eax, 18820(%rsp)       # 4-byte Spill
	movb	$0, %al
	callq	read
.Ltmp105:
	#DEBUG_VALUE: main:numObjects <- [RSP+18968]
	.loc	3 152 0                 # kmeans.c:152:0
	movq	18872(%rsp), %rdi       # 8-byte Reload
	movq	18960(%rsp), %rsi       # 8-byte Reload
	movq	18952(%rsp), %rdx       # 8-byte Reload
	movq	18944(%rsp), %rcx       # 8-byte Reload
	movq	19008(%rsp), %r8        # 8-byte Reload
	movl	19332(%rsp), %r9d       # 4-byte Reload
	movl	$1, (%rsp)
	movl	%eax, 18816(%rsp)       # 4-byte Spill
	callq	trace_logger_log0
	movq	18888(%rsp), %rdi       # 8-byte Reload
	movq	19352(%rsp), %rsi       # 8-byte Reload
	movq	18968(%rsp), %rdx       # 8-byte Reload
	movq	18888(%rsp), %rcx       # 8-byte Reload
	movq	18984(%rsp), %r8        # 8-byte Reload
	movq	18920(%rsp), %r9        # 8-byte Reload
	movq	18976(%rsp), %r10       # 8-byte Reload
	movq	%r10, (%rsp)
	callq	trace_logger_log_int
	movl	25560(%rsp), %eax
	movl	%eax, %esi
	movl	%esi, %edx
	movq	19312(%rsp), %rdi       # 8-byte Reload
	movq	19208(%rsp), %rsi       # 8-byte Reload
	movq	18888(%rsp), %rcx       # 8-byte Reload
	movq	19000(%rsp), %r8        # 8-byte Reload
	movq	18920(%rsp), %r9        # 8-byte Reload
	movq	18992(%rsp), %r10       # 8-byte Reload
	movq	%r10, (%rsp)
	movl	%eax, 18812(%rsp)       # 4-byte Spill
	callq	trace_logger_log_int
.Ltmp106:
	#DEBUG_VALUE: main:numAttributes <- [RSP+19040]
	movq	18872(%rsp), %rdi       # 8-byte Reload
	movq	19032(%rsp), %rsi       # 8-byte Reload
	movq	19024(%rsp), %rdx       # 8-byte Reload
	movq	19016(%rsp), %rcx       # 8-byte Reload
	movq	19008(%rsp), %r8        # 8-byte Reload
	movl	19332(%rsp), %r9d       # 4-byte Reload
	movl	$1, (%rsp)
	callq	trace_logger_log0
	movq	18888(%rsp), %rdi       # 8-byte Reload
	movq	19352(%rsp), %rsi       # 8-byte Reload
	movq	19040(%rsp), %rdx       # 8-byte Reload
	movq	18888(%rsp), %rcx       # 8-byte Reload
	movq	19056(%rsp), %r8        # 8-byte Reload
	movq	18920(%rsp), %r9        # 8-byte Reload
	movq	19048(%rsp), %r10       # 8-byte Reload
	movq	%r10, (%rsp)
	callq	trace_logger_log_int
	movl	25564(%rsp), %eax
	movl	%eax, %esi
	movl	%esi, %edx
	movq	19312(%rsp), %rdi       # 8-byte Reload
	movq	19208(%rsp), %rsi       # 8-byte Reload
	movq	18888(%rsp), %rcx       # 8-byte Reload
	movq	19072(%rsp), %r8        # 8-byte Reload
	movq	18920(%rsp), %r9        # 8-byte Reload
	movq	19064(%rsp), %r10       # 8-byte Reload
	movq	%r10, (%rsp)
	movl	%eax, 18808(%rsp)       # 4-byte Spill
	callq	trace_logger_log_int
	movq	18872(%rsp), %rdi       # 8-byte Reload
	movq	19104(%rsp), %rsi       # 8-byte Reload
	movq	19096(%rsp), %rdx       # 8-byte Reload
	movq	19088(%rsp), %rcx       # 8-byte Reload
	movq	19080(%rsp), %r8        # 8-byte Reload
	movl	19332(%rsp), %r9d       # 4-byte Reload
	movl	$1, (%rsp)
	callq	trace_logger_log0
	movl	18812(%rsp), %eax       # 4-byte Reload
	movl	%eax, %r9d
	movl	%r9d, %edx
	movq	18840(%rsp), %rdi       # 8-byte Reload
	movq	19208(%rsp), %rsi       # 8-byte Reload
	movq	18888(%rsp), %rcx       # 8-byte Reload
	movq	19120(%rsp), %r8        # 8-byte Reload
	movq	18920(%rsp), %r9        # 8-byte Reload
	movq	19112(%rsp), %r10       # 8-byte Reload
	movq	%r10, (%rsp)
	callq	trace_logger_log_int
	movl	18808(%rsp), %eax       # 4-byte Reload
	movl	%eax, %eax
	movl	%eax, %edx
	movq	18888(%rsp), %rdi       # 8-byte Reload
	movq	19208(%rsp), %rsi       # 8-byte Reload
	movq	18888(%rsp), %rcx       # 8-byte Reload
	movq	19136(%rsp), %r8        # 8-byte Reload
	movq	18920(%rsp), %r9        # 8-byte Reload
	movq	19128(%rsp), %r10       # 8-byte Reload
	movq	%r10, (%rsp)
	callq	trace_logger_log_int
	movl	18808(%rsp), %eax       # 4-byte Reload
	movl	18812(%rsp), %esi       # 4-byte Reload
	imull	%esi, %eax
	movl	%eax, %esi
	movl	%esi, %edx
	movq	19312(%rsp), %rdi       # 8-byte Reload
	movq	19208(%rsp), %rsi       # 8-byte Reload
	movq	18888(%rsp), %rcx       # 8-byte Reload
	movq	19152(%rsp), %r8        # 8-byte Reload
	movq	18920(%rsp), %r9        # 8-byte Reload
	movq	19144(%rsp), %r10       # 8-byte Reload
	movq	%r10, (%rsp)
	movl	%eax, 18804(%rsp)       # 4-byte Spill
	callq	trace_logger_log_int
	movq	18872(%rsp), %rdi       # 8-byte Reload
	movq	19184(%rsp), %rsi       # 8-byte Reload
	movq	19176(%rsp), %rdx       # 8-byte Reload
	movq	19168(%rsp), %rcx       # 8-byte Reload
	movq	19160(%rsp), %r8        # 8-byte Reload
	movl	19332(%rsp), %r9d       # 4-byte Reload
	movl	$1, (%rsp)
	callq	trace_logger_log0
	movl	18804(%rsp), %eax       # 4-byte Reload
	movl	%eax, %r9d
	movl	%r9d, %edx
	movq	18888(%rsp), %rdi       # 8-byte Reload
	movq	19208(%rsp), %rsi       # 8-byte Reload
	movq	18888(%rsp), %rcx       # 8-byte Reload
	movq	19200(%rsp), %r8        # 8-byte Reload
	movq	18920(%rsp), %r9        # 8-byte Reload
	movq	19192(%rsp), %r10       # 8-byte Reload
	movq	%r10, (%rsp)
	callq	trace_logger_log_int
	movl	18804(%rsp), %eax       # 4-byte Reload
	movslq	%eax, %rcx
	movq	19312(%rsp), %rdi       # 8-byte Reload
	movq	19352(%rsp), %rsi       # 8-byte Reload
	movq	%rcx, %rdx
	movq	18888(%rsp), %r8        # 8-byte Reload
	movq	%rcx, 18792(%rsp)       # 8-byte Spill
	movq	%r8, %rcx
	movq	19224(%rsp), %r8        # 8-byte Reload
	movq	18920(%rsp), %r9        # 8-byte Reload
	movq	19216(%rsp), %r10       # 8-byte Reload
	movq	%r10, (%rsp)
	callq	trace_logger_log_int
	movq	18872(%rsp), %rdi       # 8-byte Reload
	movq	19256(%rsp), %rsi       # 8-byte Reload
	movq	19248(%rsp), %rdx       # 8-byte Reload
	movq	19240(%rsp), %rcx       # 8-byte Reload
	movq	19232(%rsp), %r8        # 8-byte Reload
	movl	19332(%rsp), %r9d       # 4-byte Reload
	movl	$1, (%rsp)
	callq	trace_logger_log0
	movq	18840(%rsp), %rdi       # 8-byte Reload
	movq	19352(%rsp), %rsi       # 8-byte Reload
	movq	18840(%rsp), %rdx       # 8-byte Reload
	movq	18920(%rsp), %rcx       # 8-byte Reload
	movq	19272(%rsp), %r8        # 8-byte Reload
	movq	18920(%rsp), %r9        # 8-byte Reload
	movq	19264(%rsp), %r10       # 8-byte Reload
	movq	%r10, (%rsp)
	callq	trace_logger_log_int
	movq	18888(%rsp), %rdi       # 8-byte Reload
	movq	19352(%rsp), %rsi       # 8-byte Reload
	movq	18792(%rsp), %rdx       # 8-byte Reload
	movq	18888(%rsp), %rcx       # 8-byte Reload
	movq	19288(%rsp), %r8        # 8-byte Reload
	movq	18920(%rsp), %r9        # 8-byte Reload
	movq	19280(%rsp), %r10       # 8-byte Reload
	movq	%r10, (%rsp)
	callq	trace_logger_log_int
	movq	18792(%rsp), %rcx       # 8-byte Reload
	shlq	$2, %rcx
	movq	19312(%rsp), %rdi       # 8-byte Reload
	movq	19352(%rsp), %rsi       # 8-byte Reload
	movq	%rcx, %rdx
	movq	18888(%rsp), %r8        # 8-byte Reload
	movq	%rcx, 18784(%rsp)       # 8-byte Spill
	movq	%r8, %rcx
	movq	19304(%rsp), %r8        # 8-byte Reload
	movq	18920(%rsp), %r9        # 8-byte Reload
	movq	19296(%rsp), %r10       # 8-byte Reload
	movq	%r10, (%rsp)
	callq	trace_logger_log_int
	movq	18872(%rsp), %rdi       # 8-byte Reload
	movq	18864(%rsp), %rsi       # 8-byte Reload
	movq	18904(%rsp), %rdx       # 8-byte Reload
	movq	19344(%rsp), %rcx       # 8-byte Reload
	movq	19320(%rsp), %r8        # 8-byte Reload
	movl	19332(%rsp), %r9d       # 4-byte Reload
	movl	$1, (%rsp)
	callq	trace_logger_log0
	movq	18840(%rsp), %rdi       # 8-byte Reload
	movq	19352(%rsp), %rsi       # 8-byte Reload
	movq	18832(%rsp), %rdx       # 8-byte Reload
	movq	18888(%rsp), %rcx       # 8-byte Reload
	movq	18824(%rsp), %r8        # 8-byte Reload
	movq	18920(%rsp), %r9        # 8-byte Reload
	movq	18896(%rsp), %r10       # 8-byte Reload
	movq	%r10, (%rsp)
	callq	trace_logger_log_int
	movq	18888(%rsp), %rdi       # 8-byte Reload
	movq	19352(%rsp), %rsi       # 8-byte Reload
	movq	18784(%rsp), %rdx       # 8-byte Reload
	movq	18888(%rsp), %rcx       # 8-byte Reload
	movq	18856(%rsp), %r8        # 8-byte Reload
	movq	18920(%rsp), %r9        # 8-byte Reload
	movq	18848(%rsp), %r10       # 8-byte Reload
	movq	%r10, (%rsp)
	callq	trace_logger_log_int
	movq	18928(%rsp), %rdi       # 8-byte Reload
	movq	19352(%rsp), %rsi       # 8-byte Reload
	movq	18784(%rsp), %rdx       # 8-byte Reload
	movq	18888(%rsp), %rcx       # 8-byte Reload
	movq	18880(%rsp), %r8        # 8-byte Reload
	movq	18920(%rsp), %r9        # 8-byte Reload
	movq	19336(%rsp), %r10       # 8-byte Reload
	movq	%r10, (%rsp)
	callq	trace_logger_log_int
	movq	18784(%rsp), %rdi       # 8-byte Reload
	callq	malloc
	movabsq	$24601, %rdi            # imm = 0x6019
	movabsq	$64, %rcx
	movabsq	$1, %rdx
	leaq	.L.str576, %r8
	movabsq	$0, %rsi
	leaq	.L.str577, %r9
	leaq	.L.str574, %r10
	leaq	.L.str575, %r11
	movabsq	$2, %rbx
	leaq	malloc, %r14
	leaq	.L.str572, %r15
	leaq	.L.str573, %r12
	movabsq	$153, %r13
	leaq	.L.str569, %rbp
	movq	%rax, 18776(%rsp)       # 8-byte Spill
	leaq	.L.str570, %rax
	movq	%rax, 18768(%rsp)       # 8-byte Spill
	leaq	.L.str571, %rax
	movq	%rax, 18760(%rsp)       # 8-byte Spill
	movabsq	$49, %rax
	movq	%rsi, 18752(%rsp)       # 8-byte Spill
	movl	$0, %esi
	movl	%esi, 18748(%rsp)       # 4-byte Spill
	movl	$1, %esi
	movq	%rax, 18736(%rsp)       # 8-byte Spill
	movabsq	$19134, %rax            # imm = 0x4ABE
	movq	%rax, 18728(%rsp)       # 8-byte Spill
	leaq	.L.str567, %rax
	movq	%rax, 18720(%rsp)       # 8-byte Spill
	leaq	.L.str568, %rax
	movq	%rax, 18712(%rsp)       # 8-byte Spill
	leaq	.L.str565, %rax
	movq	%rax, 18704(%rsp)       # 8-byte Spill
	leaq	.L.str566, %rax
	movq	%rax, 18696(%rsp)       # 8-byte Spill
	movabsq	$3, %rax
	movq	%rax, 18688(%rsp)       # 8-byte Spill
	leaq	.L.str563, %rax
	movq	%rax, 18680(%rsp)       # 8-byte Spill
	leaq	.L.str564, %rax
	movq	%rax, 18672(%rsp)       # 8-byte Spill
	leaq	.L.str560, %rax
	movq	%rax, 18664(%rsp)       # 8-byte Spill
	leaq	.L.str561, %rax
	movq	%rax, 18656(%rsp)       # 8-byte Spill
	leaq	.L.str562, %rax
	movq	%rax, 18648(%rsp)       # 8-byte Spill
	movabsq	$20, %rax
	movq	%rax, 18640(%rsp)       # 8-byte Spill
	leaq	.L.str558, %rax
	movq	%rax, 18632(%rsp)       # 8-byte Spill
	leaq	.L.str559, %rax
	movq	%rax, 18624(%rsp)       # 8-byte Spill
	movabsq	$32, %rax
	movq	%rax, 18616(%rsp)       # 8-byte Spill
	leaq	.L.str556, %rax
	movq	%rax, 18608(%rsp)       # 8-byte Spill
	leaq	.L.str557, %rax
	movq	%rax, 18600(%rsp)       # 8-byte Spill
	leaq	.L.str553, %rax
	movq	%rax, 18592(%rsp)       # 8-byte Spill
	leaq	.L.str554, %rax
	movq	%rax, 18584(%rsp)       # 8-byte Spill
	leaq	.L.str555, %rax
	movq	%rax, 18576(%rsp)       # 8-byte Spill
	movabsq	$35, %rax
	movq	%rax, 18568(%rsp)       # 8-byte Spill
	leaq	.L.str551, %rax
	movq	%rax, 18560(%rsp)       # 8-byte Spill
	leaq	.L.str552, %rax
	movq	%rax, 18552(%rsp)       # 8-byte Spill
	leaq	.L.str549, %rax
	movq	%rax, 18544(%rsp)       # 8-byte Spill
	leaq	.L.str550, %rax
	movq	%rax, 18536(%rsp)       # 8-byte Spill
	leaq	25560(%rsp), %rax
	movq	%rax, 18528(%rsp)       # 8-byte Spill
	leaq	.L.str546, %rax
	movq	%rax, 18520(%rsp)       # 8-byte Spill
	leaq	.L.str547, %rax
	movq	%rax, 18512(%rsp)       # 8-byte Spill
	leaq	.L.str548, %rax
	movq	%rax, 18504(%rsp)       # 8-byte Spill
	movabsq	$27, %rax
	movq	%rax, 18496(%rsp)       # 8-byte Spill
	leaq	.L.str544, %rax
	movq	%rax, 18488(%rsp)       # 8-byte Spill
	leaq	.L.str545, %rax
	movq	%rax, 18480(%rsp)       # 8-byte Spill
	leaq	.L.str542, %rax
	movq	%rax, 18472(%rsp)       # 8-byte Spill
	leaq	.L.str543, %rax
	movq	%rax, 18464(%rsp)       # 8-byte Spill
	movabsq	$152, %rax
	movq	%rax, 18456(%rsp)       # 8-byte Spill
	leaq	.L.str539, %rax
	movq	%rax, 18448(%rsp)       # 8-byte Spill
	leaq	.L.str540, %rax
	movq	%rax, 18440(%rsp)       # 8-byte Spill
	leaq	.L.str541, %rax
	movq	%rax, 18432(%rsp)       # 8-byte Spill
	movabsq	$44, %rax
	movq	%rax, 18424(%rsp)       # 8-byte Spill
	leaq	.L.str537, %rax
	movq	%rax, 18416(%rsp)       # 8-byte Spill
	leaq	.L.str538, %rax
	movq	%rax, 18408(%rsp)       # 8-byte Spill
	movq	18728(%rsp), %rax       # 8-byte Reload
	movq	%rdi, 18400(%rsp)       # 8-byte Spill
	movq	%rax, %rdi
	movl	%esi, 18396(%rsp)       # 4-byte Spill
	movq	%rcx, %rsi
	movq	18776(%rsp), %rax       # 8-byte Reload
	movq	%rdx, 18384(%rsp)       # 8-byte Spill
	movq	%rax, %rdx
	movq	18384(%rsp), %rax       # 8-byte Reload
	movq	%rcx, 18376(%rsp)       # 8-byte Spill
	movq	%rax, %rcx
	movq	18416(%rsp), %rax       # 8-byte Reload
	movq	%r8, 18368(%rsp)        # 8-byte Spill
	movq	%rax, %r8
	movq	18752(%rsp), %rax       # 8-byte Reload
	movq	%r9, 18360(%rsp)        # 8-byte Spill
	movq	%rax, %r9
	movq	18408(%rsp), %rax       # 8-byte Reload
	movq	%rax, (%rsp)
	movq	%rbp, 18352(%rsp)       # 8-byte Spill
	movq	%r15, 18344(%rsp)       # 8-byte Spill
	movq	%r12, 18336(%rsp)       # 8-byte Spill
	movq	%r14, 18328(%rsp)       # 8-byte Spill
	movq	%r13, 18320(%rsp)       # 8-byte Spill
	movq	%rbx, 18312(%rsp)       # 8-byte Spill
	movq	%r10, 18304(%rsp)       # 8-byte Spill
	movq	%r11, 18296(%rsp)       # 8-byte Spill
	callq	trace_logger_log_int
	movq	18456(%rsp), %rdi       # 8-byte Reload
	movq	18448(%rsp), %rsi       # 8-byte Reload
	movq	18440(%rsp), %rdx       # 8-byte Reload
	movq	18432(%rsp), %rcx       # 8-byte Reload
	movq	18424(%rsp), %r8        # 8-byte Reload
	movl	18748(%rsp), %r9d       # 4-byte Reload
	movl	$1, (%rsp)
	callq	trace_logger_log0
	movq	18384(%rsp), %rdi       # 8-byte Reload
	movq	18376(%rsp), %rsi       # 8-byte Reload
	movq	18776(%rsp), %rdx       # 8-byte Reload
	movq	18384(%rsp), %rcx       # 8-byte Reload
	movq	18472(%rsp), %r8        # 8-byte Reload
	movq	18752(%rsp), %r9        # 8-byte Reload
	movq	18464(%rsp), %rax       # 8-byte Reload
	movq	%rax, (%rsp)
	callq	trace_logger_log_int
	movq	18776(%rsp), %rax       # 8-byte Reload
	movq	18728(%rsp), %rdi       # 8-byte Reload
	movq	18376(%rsp), %rsi       # 8-byte Reload
	movq	%rax, %rdx
	movq	18384(%rsp), %rcx       # 8-byte Reload
	movq	18488(%rsp), %r8        # 8-byte Reload
	movq	18752(%rsp), %r9        # 8-byte Reload
	movq	18480(%rsp), %r10       # 8-byte Reload
	movq	%r10, (%rsp)
	movq	%rax, 18288(%rsp)       # 8-byte Spill
	callq	trace_logger_log_int
.Ltmp107:
	#DEBUG_VALUE: main:buf <- [RSP+18288]
	#DEBUG_VALUE: main:numObjects <- [RSP+18528]
	.loc	3 153 0                 # kmeans.c:153:0
	movq	18320(%rsp), %rdi       # 8-byte Reload
	movq	18520(%rsp), %rsi       # 8-byte Reload
	movq	18512(%rsp), %rdx       # 8-byte Reload
	movq	18504(%rsp), %rcx       # 8-byte Reload
	movq	18496(%rsp), %r8        # 8-byte Reload
	movl	18748(%rsp), %r9d       # 4-byte Reload
	movl	$1, (%rsp)
	callq	trace_logger_log0
	movq	18384(%rsp), %rdi       # 8-byte Reload
	movq	18376(%rsp), %rsi       # 8-byte Reload
	movq	18528(%rsp), %rdx       # 8-byte Reload
	movq	18384(%rsp), %rcx       # 8-byte Reload
	movq	18544(%rsp), %r8        # 8-byte Reload
	movq	18752(%rsp), %r9        # 8-byte Reload
	movq	18536(%rsp), %rax       # 8-byte Reload
	movq	%rax, (%rsp)
	callq	trace_logger_log_int
	movl	25560(%rsp), %esi
	movl	%esi, %edi
	movl	%edi, %edx
	movq	18728(%rsp), %rdi       # 8-byte Reload
	movq	18616(%rsp), %rax       # 8-byte Reload
	movl	%esi, 18284(%rsp)       # 4-byte Spill
	movq	%rax, %rsi
	movq	18384(%rsp), %rcx       # 8-byte Reload
	movq	18560(%rsp), %r8        # 8-byte Reload
	movq	18752(%rsp), %r9        # 8-byte Reload
	movq	18552(%rsp), %r10       # 8-byte Reload
	movq	%r10, (%rsp)
	callq	trace_logger_log_int
	movq	18320(%rsp), %rdi       # 8-byte Reload
	movq	18592(%rsp), %rsi       # 8-byte Reload
	movq	18584(%rsp), %rdx       # 8-byte Reload
	movq	18576(%rsp), %rcx       # 8-byte Reload
	movq	18568(%rsp), %r8        # 8-byte Reload
	movl	18748(%rsp), %r9d       # 4-byte Reload
	movl	$1, (%rsp)
	callq	trace_logger_log0
	movl	18284(%rsp), %r9d       # 4-byte Reload
	movl	%r9d, %esi
	movl	%esi, %edx
	movq	18384(%rsp), %rdi       # 8-byte Reload
	movq	18616(%rsp), %rsi       # 8-byte Reload
	movq	18384(%rsp), %rcx       # 8-byte Reload
	movq	18608(%rsp), %r8        # 8-byte Reload
	movq	18752(%rsp), %r9        # 8-byte Reload
	movq	18600(%rsp), %rax       # 8-byte Reload
	movq	%rax, (%rsp)
	callq	trace_logger_log_int
	movl	18284(%rsp), %esi       # 4-byte Reload
	movslq	%esi, %rax
	movq	18728(%rsp), %rdi       # 8-byte Reload
	movq	18376(%rsp), %rsi       # 8-byte Reload
	movq	%rax, %rdx
	movq	18384(%rsp), %rcx       # 8-byte Reload
	movq	18632(%rsp), %r8        # 8-byte Reload
	movq	18752(%rsp), %r9        # 8-byte Reload
	movq	18624(%rsp), %r10       # 8-byte Reload
	movq	%r10, (%rsp)
	movq	%rax, 18272(%rsp)       # 8-byte Spill
	callq	trace_logger_log_int
	movq	18320(%rsp), %rdi       # 8-byte Reload
	movq	18664(%rsp), %rsi       # 8-byte Reload
	movq	18656(%rsp), %rdx       # 8-byte Reload
	movq	18648(%rsp), %rcx       # 8-byte Reload
	movq	18640(%rsp), %r8        # 8-byte Reload
	movl	18748(%rsp), %r9d       # 4-byte Reload
	movl	$1, (%rsp)
	callq	trace_logger_log0
	movq	18312(%rsp), %rdi       # 8-byte Reload
	movq	18376(%rsp), %rsi       # 8-byte Reload
	movq	18688(%rsp), %rdx       # 8-byte Reload
	movq	18752(%rsp), %rcx       # 8-byte Reload
	movq	18680(%rsp), %r8        # 8-byte Reload
	movq	18752(%rsp), %r9        # 8-byte Reload
	movq	18672(%rsp), %rax       # 8-byte Reload
	movq	%rax, (%rsp)
	callq	trace_logger_log_int
	movq	18384(%rsp), %rdi       # 8-byte Reload
	movq	18376(%rsp), %rsi       # 8-byte Reload
	movq	18272(%rsp), %rdx       # 8-byte Reload
	movq	18384(%rsp), %rcx       # 8-byte Reload
	movq	18704(%rsp), %r8        # 8-byte Reload
	movq	18752(%rsp), %r9        # 8-byte Reload
	movq	18696(%rsp), %rax       # 8-byte Reload
	movq	%rax, (%rsp)
	callq	trace_logger_log_int
	movq	18272(%rsp), %rax       # 8-byte Reload
	shlq	$3, %rax
	movq	18728(%rsp), %rdi       # 8-byte Reload
	movq	18376(%rsp), %rsi       # 8-byte Reload
	movq	%rax, %rdx
	movq	18384(%rsp), %rcx       # 8-byte Reload
	movq	18720(%rsp), %r8        # 8-byte Reload
	movq	18752(%rsp), %r9        # 8-byte Reload
	movq	18712(%rsp), %r10       # 8-byte Reload
	movq	%r10, (%rsp)
	movq	%rax, 18264(%rsp)       # 8-byte Spill
	callq	trace_logger_log_int
	movq	18320(%rsp), %rdi       # 8-byte Reload
	movq	18352(%rsp), %rsi       # 8-byte Reload
	movq	18768(%rsp), %rdx       # 8-byte Reload
	movq	18760(%rsp), %rcx       # 8-byte Reload
	movq	18736(%rsp), %r8        # 8-byte Reload
	movl	18748(%rsp), %r9d       # 4-byte Reload
	movl	$1, (%rsp)
	callq	trace_logger_log0
	movq	18312(%rsp), %rdi       # 8-byte Reload
	movq	18376(%rsp), %rsi       # 8-byte Reload
	movq	18328(%rsp), %rdx       # 8-byte Reload
	movq	18384(%rsp), %rcx       # 8-byte Reload
	movq	18344(%rsp), %r8        # 8-byte Reload
	movq	18752(%rsp), %r9        # 8-byte Reload
	movq	18336(%rsp), %rax       # 8-byte Reload
	movq	%rax, (%rsp)
	callq	trace_logger_log_int
	movq	18384(%rsp), %rdi       # 8-byte Reload
	movq	18376(%rsp), %rsi       # 8-byte Reload
	movq	18264(%rsp), %rdx       # 8-byte Reload
	movq	18384(%rsp), %rcx       # 8-byte Reload
	movq	18304(%rsp), %r8        # 8-byte Reload
	movq	18752(%rsp), %r9        # 8-byte Reload
	movq	18296(%rsp), %rax       # 8-byte Reload
	movq	%rax, (%rsp)
	callq	trace_logger_log_int
	movq	18400(%rsp), %rdi       # 8-byte Reload
	movq	18376(%rsp), %rsi       # 8-byte Reload
	movq	18264(%rsp), %rdx       # 8-byte Reload
	movq	18384(%rsp), %rcx       # 8-byte Reload
	movq	18368(%rsp), %r8        # 8-byte Reload
	movq	18752(%rsp), %r9        # 8-byte Reload
	movq	18360(%rsp), %rax       # 8-byte Reload
	movq	%rax, (%rsp)
	callq	trace_logger_log_int
	movq	18264(%rsp), %rdi       # 8-byte Reload
	callq	malloc
	movabsq	$24601, %rdi            # imm = 0x6019
	movabsq	$64, %rcx
	movabsq	$1, %rdx
	leaq	.L.str633, %r8
	movabsq	$0, %rsi
	leaq	.L.str634, %r9
	leaq	.L.str631, %r10
	leaq	.L.str632, %r11
	movabsq	$2, %rbx
	leaq	malloc, %r14
	leaq	.L.str629, %r15
	leaq	.L.str630, %r12
	movabsq	$154, %r13
	leaq	.L.str626, %rbp
	movq	%rax, 18256(%rsp)       # 8-byte Spill
	leaq	.L.str627, %rax
	movq	%rax, 18248(%rsp)       # 8-byte Spill
	leaq	.L.str628, %rax
	movq	%rax, 18240(%rsp)       # 8-byte Spill
	movabsq	$49, %rax
	movq	%rsi, 18232(%rsp)       # 8-byte Spill
	movl	$0, %esi
	movl	%esi, 18228(%rsp)       # 4-byte Spill
	movl	$1, %esi
	movq	%rax, 18216(%rsp)       # 8-byte Spill
	movabsq	$19134, %rax            # imm = 0x4ABE
	movq	%rax, 18208(%rsp)       # 8-byte Spill
	leaq	.L.str624, %rax
	movq	%rax, 18200(%rsp)       # 8-byte Spill
	leaq	.L.str625, %rax
	movq	%rax, 18192(%rsp)       # 8-byte Spill
	leaq	.L.str622, %rax
	movq	%rax, 18184(%rsp)       # 8-byte Spill
	leaq	.L.str623, %rax
	movq	%rax, 18176(%rsp)       # 8-byte Spill
	leaq	.L.str620, %rax
	movq	%rax, 18168(%rsp)       # 8-byte Spill
	leaq	.L.str621, %rax
	movq	%rax, 18160(%rsp)       # 8-byte Spill
	leaq	.L.str617, %rax
	movq	%rax, 18152(%rsp)       # 8-byte Spill
	leaq	.L.str618, %rax
	movq	%rax, 18144(%rsp)       # 8-byte Spill
	leaq	.L.str619, %rax
	movq	%rax, 18136(%rsp)       # 8-byte Spill
	movabsq	$20, %rax
	movq	%rax, 18128(%rsp)       # 8-byte Spill
	leaq	.L.str615, %rax
	movq	%rax, 18120(%rsp)       # 8-byte Spill
	leaq	.L.str616, %rax
	movq	%rax, 18112(%rsp)       # 8-byte Spill
	movabsq	$32, %rax
	movq	%rax, 18104(%rsp)       # 8-byte Spill
	leaq	.L.str613, %rax
	movq	%rax, 18096(%rsp)       # 8-byte Spill
	leaq	.L.str614, %rax
	movq	%rax, 18088(%rsp)       # 8-byte Spill
	leaq	.L.str610, %rax
	movq	%rax, 18080(%rsp)       # 8-byte Spill
	leaq	.L.str611, %rax
	movq	%rax, 18072(%rsp)       # 8-byte Spill
	leaq	.L.str612, %rax
	movq	%rax, 18064(%rsp)       # 8-byte Spill
	movabsq	$35, %rax
	movq	%rax, 18056(%rsp)       # 8-byte Spill
	leaq	.L.str608, %rax
	movq	%rax, 18048(%rsp)       # 8-byte Spill
	leaq	.L.str609, %rax
	movq	%rax, 18040(%rsp)       # 8-byte Spill
	leaq	.L.str606, %rax
	movq	%rax, 18032(%rsp)       # 8-byte Spill
	leaq	.L.str607, %rax
	movq	%rax, 18024(%rsp)       # 8-byte Spill
	leaq	.L.str604, %rax
	movq	%rax, 18016(%rsp)       # 8-byte Spill
	leaq	.L.str605, %rax
	movq	%rax, 18008(%rsp)       # 8-byte Spill
	leaq	.L.str601, %rax
	movq	%rax, 18000(%rsp)       # 8-byte Spill
	leaq	.L.str602, %rax
	movq	%rax, 17992(%rsp)       # 8-byte Spill
	leaq	.L.str603, %rax
	movq	%rax, 17984(%rsp)       # 8-byte Spill
	movabsq	$12, %rax
	movq	%rax, 17976(%rsp)       # 8-byte Spill
	leaq	.L.str599, %rax
	movq	%rax, 17968(%rsp)       # 8-byte Spill
	leaq	.L.str600, %rax
	movq	%rax, 17960(%rsp)       # 8-byte Spill
	leaq	.L.str597, %rax
	movq	%rax, 17952(%rsp)       # 8-byte Spill
	leaq	.L.str598, %rax
	movq	%rax, 17944(%rsp)       # 8-byte Spill
	leaq	25564(%rsp), %rax
	movq	%rax, 17936(%rsp)       # 8-byte Spill
	leaq	.L.str594, %rax
	movq	%rax, 17928(%rsp)       # 8-byte Spill
	leaq	.L.str595, %rax
	movq	%rax, 17920(%rsp)       # 8-byte Spill
	leaq	.L.str596, %rax
	movq	%rax, 17912(%rsp)       # 8-byte Spill
	movabsq	$27, %rax
	movq	%rax, 17904(%rsp)       # 8-byte Spill
	leaq	.L.str592, %rax
	movq	%rax, 17896(%rsp)       # 8-byte Spill
	leaq	.L.str593, %rax
	movq	%rax, 17888(%rsp)       # 8-byte Spill
	leaq	.L.str590, %rax
	movq	%rax, 17880(%rsp)       # 8-byte Spill
	leaq	.L.str591, %rax
	movq	%rax, 17872(%rsp)       # 8-byte Spill
	leaq	25560(%rsp), %rax
	movq	%rax, 17864(%rsp)       # 8-byte Spill
	leaq	.L.str587, %rax
	movq	%rax, 17856(%rsp)       # 8-byte Spill
	leaq	.L.str588, %rax
	movq	%rax, 17848(%rsp)       # 8-byte Spill
	leaq	.L.str589, %rax
	movq	%rax, 17840(%rsp)       # 8-byte Spill
	leaq	.L.str585, %rax
	movq	%rax, 17832(%rsp)       # 8-byte Spill
	leaq	.L.str586, %rax
	movq	%rax, 17824(%rsp)       # 8-byte Spill
	leaq	.L.str583, %rax
	movq	%rax, 17816(%rsp)       # 8-byte Spill
	leaq	.L.str584, %rax
	movq	%rax, 17808(%rsp)       # 8-byte Spill
	movabsq	$153, %rax
	movq	%rax, 17800(%rsp)       # 8-byte Spill
	leaq	.L.str580, %rax
	movq	%rax, 17792(%rsp)       # 8-byte Spill
	leaq	.L.str581, %rax
	movq	%rax, 17784(%rsp)       # 8-byte Spill
	leaq	.L.str582, %rax
	movq	%rax, 17776(%rsp)       # 8-byte Spill
	movabsq	$44, %rax
	movq	%rax, 17768(%rsp)       # 8-byte Spill
	leaq	.L.str578, %rax
	movq	%rax, 17760(%rsp)       # 8-byte Spill
	leaq	.L.str579, %rax
	movq	%rax, 17752(%rsp)       # 8-byte Spill
	movq	18208(%rsp), %rax       # 8-byte Reload
	movq	%rdi, 17744(%rsp)       # 8-byte Spill
	movq	%rax, %rdi
	movl	%esi, 17740(%rsp)       # 4-byte Spill
	movq	%rcx, %rsi
	movq	18256(%rsp), %rax       # 8-byte Reload
	movq	%rdx, 17728(%rsp)       # 8-byte Spill
	movq	%rax, %rdx
	movq	17728(%rsp), %rax       # 8-byte Reload
	movq	%rcx, 17720(%rsp)       # 8-byte Spill
	movq	%rax, %rcx
	movq	17760(%rsp), %rax       # 8-byte Reload
	movq	%r8, 17712(%rsp)        # 8-byte Spill
	movq	%rax, %r8
	movq	18232(%rsp), %rax       # 8-byte Reload
	movq	%r9, 17704(%rsp)        # 8-byte Spill
	movq	%rax, %r9
	movq	17752(%rsp), %rax       # 8-byte Reload
	movq	%rax, (%rsp)
	movq	%rbp, 17696(%rsp)       # 8-byte Spill
	movq	%r15, 17688(%rsp)       # 8-byte Spill
	movq	%r12, 17680(%rsp)       # 8-byte Spill
	movq	%r14, 17672(%rsp)       # 8-byte Spill
	movq	%r13, 17664(%rsp)       # 8-byte Spill
	movq	%rbx, 17656(%rsp)       # 8-byte Spill
	movq	%r10, 17648(%rsp)       # 8-byte Spill
	movq	%r11, 17640(%rsp)       # 8-byte Spill
	callq	trace_logger_log_int
	movq	17800(%rsp), %rdi       # 8-byte Reload
	movq	17792(%rsp), %rsi       # 8-byte Reload
	movq	17784(%rsp), %rdx       # 8-byte Reload
	movq	17776(%rsp), %rcx       # 8-byte Reload
	movq	17768(%rsp), %r8        # 8-byte Reload
	movl	18228(%rsp), %r9d       # 4-byte Reload
	movl	$1, (%rsp)
	callq	trace_logger_log0
	movq	17728(%rsp), %rdi       # 8-byte Reload
	movq	17720(%rsp), %rsi       # 8-byte Reload
	movq	18256(%rsp), %rdx       # 8-byte Reload
	movq	17728(%rsp), %rcx       # 8-byte Reload
	movq	17816(%rsp), %r8        # 8-byte Reload
	movq	18232(%rsp), %r9        # 8-byte Reload
	movq	17808(%rsp), %rax       # 8-byte Reload
	movq	%rax, (%rsp)
	callq	trace_logger_log_int
	movq	18256(%rsp), %rax       # 8-byte Reload
	movq	18208(%rsp), %rdi       # 8-byte Reload
	movq	17720(%rsp), %rsi       # 8-byte Reload
	movq	%rax, %rdx
	movq	17728(%rsp), %rcx       # 8-byte Reload
	movq	17832(%rsp), %r8        # 8-byte Reload
	movq	18232(%rsp), %r9        # 8-byte Reload
	movq	17824(%rsp), %r10       # 8-byte Reload
	movq	%r10, (%rsp)
	movq	%rax, 17632(%rsp)       # 8-byte Spill
	callq	trace_logger_log_int
.Ltmp108:
	#DEBUG_VALUE: main:attributes <- [RSP+17632]
	#DEBUG_VALUE: main:numObjects <- [RSP+17864]
	.loc	3 154 0                 # kmeans.c:154:0
	movq	17664(%rsp), %rdi       # 8-byte Reload
	movq	17856(%rsp), %rsi       # 8-byte Reload
	movq	17848(%rsp), %rdx       # 8-byte Reload
	movq	17840(%rsp), %rcx       # 8-byte Reload
	movq	17904(%rsp), %r8        # 8-byte Reload
	movl	18228(%rsp), %r9d       # 4-byte Reload
	movl	$1, (%rsp)
	callq	trace_logger_log0
	movq	17728(%rsp), %rdi       # 8-byte Reload
	movq	17720(%rsp), %rsi       # 8-byte Reload
	movq	17864(%rsp), %rdx       # 8-byte Reload
	movq	17728(%rsp), %rcx       # 8-byte Reload
	movq	17880(%rsp), %r8        # 8-byte Reload
	movq	18232(%rsp), %r9        # 8-byte Reload
	movq	17872(%rsp), %rax       # 8-byte Reload
	movq	%rax, (%rsp)
	callq	trace_logger_log_int
	movl	25560(%rsp), %esi
	movl	%esi, %edi
	movl	%edi, %edx
	movq	18208(%rsp), %rdi       # 8-byte Reload
	movq	18104(%rsp), %rax       # 8-byte Reload
	movl	%esi, 17628(%rsp)       # 4-byte Spill
	movq	%rax, %rsi
	movq	17728(%rsp), %rcx       # 8-byte Reload
	movq	17896(%rsp), %r8        # 8-byte Reload
	movq	18232(%rsp), %r9        # 8-byte Reload
	movq	17888(%rsp), %r10       # 8-byte Reload
	movq	%r10, (%rsp)
	callq	trace_logger_log_int
.Ltmp109:
	#DEBUG_VALUE: main:numAttributes <- [RSP+17936]
	movq	17664(%rsp), %rdi       # 8-byte Reload
	movq	17928(%rsp), %rsi       # 8-byte Reload
	movq	17920(%rsp), %rdx       # 8-byte Reload
	movq	17912(%rsp), %rcx       # 8-byte Reload
	movq	17904(%rsp), %r8        # 8-byte Reload
	movl	18228(%rsp), %r9d       # 4-byte Reload
	movl	$1, (%rsp)
	callq	trace_logger_log0
	movq	17728(%rsp), %rdi       # 8-byte Reload
	movq	17720(%rsp), %rsi       # 8-byte Reload
	movq	17936(%rsp), %rdx       # 8-byte Reload
	movq	17728(%rsp), %rcx       # 8-byte Reload
	movq	17952(%rsp), %r8        # 8-byte Reload
	movq	18232(%rsp), %r9        # 8-byte Reload
	movq	17944(%rsp), %rax       # 8-byte Reload
	movq	%rax, (%rsp)
	callq	trace_logger_log_int
	movl	25564(%rsp), %esi
	movl	%esi, %edi
	movl	%edi, %edx
	movq	18208(%rsp), %rdi       # 8-byte Reload
	movq	18104(%rsp), %rax       # 8-byte Reload
	movl	%esi, 17624(%rsp)       # 4-byte Spill
	movq	%rax, %rsi
	movq	17728(%rsp), %rcx       # 8-byte Reload
	movq	17968(%rsp), %r8        # 8-byte Reload
	movq	18232(%rsp), %r9        # 8-byte Reload
	movq	17960(%rsp), %r10       # 8-byte Reload
	movq	%r10, (%rsp)
	callq	trace_logger_log_int
	movq	17664(%rsp), %rdi       # 8-byte Reload
	movq	18000(%rsp), %rsi       # 8-byte Reload
	movq	17992(%rsp), %rdx       # 8-byte Reload
	movq	17984(%rsp), %rcx       # 8-byte Reload
	movq	17976(%rsp), %r8        # 8-byte Reload
	movl	18228(%rsp), %r9d       # 4-byte Reload
	movl	$1, (%rsp)
	callq	trace_logger_log0
	movl	17628(%rsp), %r9d       # 4-byte Reload
	movl	%r9d, %esi
	movl	%esi, %edx
	movq	17656(%rsp), %rdi       # 8-byte Reload
	movq	18104(%rsp), %rsi       # 8-byte Reload
	movq	17728(%rsp), %rcx       # 8-byte Reload
	movq	18016(%rsp), %r8        # 8-byte Reload
	movq	18232(%rsp), %r9        # 8-byte Reload
	movq	18008(%rsp), %rax       # 8-byte Reload
	movq	%rax, (%rsp)
	callq	trace_logger_log_int
	movl	17624(%rsp), %esi       # 4-byte Reload
	movl	%esi, %esi
	movl	%esi, %edx
	movq	17728(%rsp), %rdi       # 8-byte Reload
	movq	18104(%rsp), %rsi       # 8-byte Reload
	movq	17728(%rsp), %rcx       # 8-byte Reload
	movq	18032(%rsp), %r8        # 8-byte Reload
	movq	18232(%rsp), %r9        # 8-byte Reload
	movq	18024(%rsp), %rax       # 8-byte Reload
	movq	%rax, (%rsp)
	callq	trace_logger_log_int
	movl	17624(%rsp), %esi       # 4-byte Reload
	movl	17628(%rsp), %edi       # 4-byte Reload
	imull	%edi, %esi
	movl	%esi, %edi
	movl	%edi, %edx
	movq	18208(%rsp), %rdi       # 8-byte Reload
	movq	18104(%rsp), %rax       # 8-byte Reload
	movl	%esi, 17620(%rsp)       # 4-byte Spill
	movq	%rax, %rsi
	movq	17728(%rsp), %rcx       # 8-byte Reload
	movq	18048(%rsp), %r8        # 8-byte Reload
	movq	18232(%rsp), %r9        # 8-byte Reload
	movq	18040(%rsp), %r10       # 8-byte Reload
	movq	%r10, (%rsp)
	callq	trace_logger_log_int
	movq	17664(%rsp), %rdi       # 8-byte Reload
	movq	18080(%rsp), %rsi       # 8-byte Reload
	movq	18072(%rsp), %rdx       # 8-byte Reload
	movq	18064(%rsp), %rcx       # 8-byte Reload
	movq	18056(%rsp), %r8        # 8-byte Reload
	movl	18228(%rsp), %r9d       # 4-byte Reload
	movl	$1, (%rsp)
	callq	trace_logger_log0
	movl	17620(%rsp), %r9d       # 4-byte Reload
	movl	%r9d, %esi
	movl	%esi, %edx
	movq	17728(%rsp), %rdi       # 8-byte Reload
	movq	18104(%rsp), %rsi       # 8-byte Reload
	movq	17728(%rsp), %rcx       # 8-byte Reload
	movq	18096(%rsp), %r8        # 8-byte Reload
	movq	18232(%rsp), %r9        # 8-byte Reload
	movq	18088(%rsp), %rax       # 8-byte Reload
	movq	%rax, (%rsp)
	callq	trace_logger_log_int
	movl	17620(%rsp), %esi       # 4-byte Reload
	movslq	%esi, %rax
	movq	18208(%rsp), %rdi       # 8-byte Reload
	movq	17720(%rsp), %rsi       # 8-byte Reload
	movq	%rax, %rdx
	movq	17728(%rsp), %rcx       # 8-byte Reload
	movq	18120(%rsp), %r8        # 8-byte Reload
	movq	18232(%rsp), %r9        # 8-byte Reload
	movq	18112(%rsp), %r10       # 8-byte Reload
	movq	%r10, (%rsp)
	movq	%rax, 17608(%rsp)       # 8-byte Spill
	callq	trace_logger_log_int
	movq	17664(%rsp), %rdi       # 8-byte Reload
	movq	18152(%rsp), %rsi       # 8-byte Reload
	movq	18144(%rsp), %rdx       # 8-byte Reload
	movq	18136(%rsp), %rcx       # 8-byte Reload
	movq	18128(%rsp), %r8        # 8-byte Reload
	movl	18228(%rsp), %r9d       # 4-byte Reload
	movl	$1, (%rsp)
	callq	trace_logger_log0
	movq	17656(%rsp), %rdi       # 8-byte Reload
	movq	17720(%rsp), %rsi       # 8-byte Reload
	movq	17656(%rsp), %rdx       # 8-byte Reload
	movq	18232(%rsp), %rcx       # 8-byte Reload
	movq	18168(%rsp), %r8        # 8-byte Reload
	movq	18232(%rsp), %r9        # 8-byte Reload
	movq	18160(%rsp), %rax       # 8-byte Reload
	movq	%rax, (%rsp)
	callq	trace_logger_log_int
	movq	17728(%rsp), %rdi       # 8-byte Reload
	movq	17720(%rsp), %rsi       # 8-byte Reload
	movq	17608(%rsp), %rdx       # 8-byte Reload
	movq	17728(%rsp), %rcx       # 8-byte Reload
	movq	18184(%rsp), %r8        # 8-byte Reload
	movq	18232(%rsp), %r9        # 8-byte Reload
	movq	18176(%rsp), %rax       # 8-byte Reload
	movq	%rax, (%rsp)
	callq	trace_logger_log_int
	movq	17608(%rsp), %rax       # 8-byte Reload
	shlq	$2, %rax
	movq	18208(%rsp), %rdi       # 8-byte Reload
	movq	17720(%rsp), %rsi       # 8-byte Reload
	movq	%rax, %rdx
	movq	17728(%rsp), %rcx       # 8-byte Reload
	movq	18200(%rsp), %r8        # 8-byte Reload
	movq	18232(%rsp), %r9        # 8-byte Reload
	movq	18192(%rsp), %r10       # 8-byte Reload
	movq	%r10, (%rsp)
	movq	%rax, 17600(%rsp)       # 8-byte Spill
	callq	trace_logger_log_int
	movq	17664(%rsp), %rdi       # 8-byte Reload
	movq	17696(%rsp), %rsi       # 8-byte Reload
	movq	18248(%rsp), %rdx       # 8-byte Reload
	movq	18240(%rsp), %rcx       # 8-byte Reload
	movq	18216(%rsp), %r8        # 8-byte Reload
	movl	18228(%rsp), %r9d       # 4-byte Reload
	movl	$1, (%rsp)
	callq	trace_logger_log0
	movq	17656(%rsp), %rdi       # 8-byte Reload
	movq	17720(%rsp), %rsi       # 8-byte Reload
	movq	17672(%rsp), %rdx       # 8-byte Reload
	movq	17728(%rsp), %rcx       # 8-byte Reload
	movq	17688(%rsp), %r8        # 8-byte Reload
	movq	18232(%rsp), %r9        # 8-byte Reload
	movq	17680(%rsp), %rax       # 8-byte Reload
	movq	%rax, (%rsp)
	callq	trace_logger_log_int
	movq	17728(%rsp), %rdi       # 8-byte Reload
	movq	17720(%rsp), %rsi       # 8-byte Reload
	movq	17600(%rsp), %rdx       # 8-byte Reload
	movq	17728(%rsp), %rcx       # 8-byte Reload
	movq	17648(%rsp), %r8        # 8-byte Reload
	movq	18232(%rsp), %r9        # 8-byte Reload
	movq	17640(%rsp), %rax       # 8-byte Reload
	movq	%rax, (%rsp)
	callq	trace_logger_log_int
	movq	17744(%rsp), %rdi       # 8-byte Reload
	movq	17720(%rsp), %rsi       # 8-byte Reload
	movq	17600(%rsp), %rdx       # 8-byte Reload
	movq	17728(%rsp), %rcx       # 8-byte Reload
	movq	17712(%rsp), %r8        # 8-byte Reload
	movq	18232(%rsp), %r9        # 8-byte Reload
	movq	17704(%rsp), %rax       # 8-byte Reload
	movq	%rax, (%rsp)
	callq	trace_logger_log_int
	movq	17600(%rsp), %rdi       # 8-byte Reload
	callq	malloc
	movabsq	$1, %rcx
	leaq	.L.str674, %r8
	movabsq	$0, %rdx
	leaq	.L.str675, %rsi
	movabsq	$2, %rdi
	leaq	.L.str672, %r9
	leaq	.L.str673, %r10
	movabsq	$3, %r11
	leaq	.L.str670, %rbx
	leaq	.L.str671, %r14
	movabsq	$155, %r15
	leaq	.L.str667, %r12
	leaq	.L.str668, %r13
	leaq	.L.str669, %rbp
	movq	%rsi, 17592(%rsp)       # 8-byte Spill
	movl	$0, %esi
	movl	%esi, 17588(%rsp)       # 4-byte Spill
	movl	$1, %esi
	movq	%rax, 17576(%rsp)       # 8-byte Spill
	movabsq	$19134, %rax            # imm = 0x4ABE
	movq	%rax, 17568(%rsp)       # 8-byte Spill
	leaq	.L.str665, %rax
	movq	%rax, 17560(%rsp)       # 8-byte Spill
	leaq	.L.str666, %rax
	movq	%rax, 17552(%rsp)       # 8-byte Spill
	movabsq	$32, %rax
	movq	%rax, 17544(%rsp)       # 8-byte Spill
	leaq	.L.str663, %rax
	movq	%rax, 17536(%rsp)       # 8-byte Spill
	leaq	.L.str664, %rax
	movq	%rax, 17528(%rsp)       # 8-byte Spill
	leaq	.L.str661, %rax
	movq	%rax, 17520(%rsp)       # 8-byte Spill
	leaq	.L.str662, %rax
	movq	%rax, 17512(%rsp)       # 8-byte Spill
	leaq	.L.str658, %rax
	movq	%rax, 17504(%rsp)       # 8-byte Spill
	leaq	.L.str659, %rax
	movq	%rax, 17496(%rsp)       # 8-byte Spill
	leaq	.L.str660, %rax
	movq	%rax, 17488(%rsp)       # 8-byte Spill
	movabsq	$46, %rax
	movq	%rax, 17480(%rsp)       # 8-byte Spill
	leaq	.L.str656, %rax
	movq	%rax, 17472(%rsp)       # 8-byte Spill
	leaq	.L.str657, %rax
	movq	%rax, 17464(%rsp)       # 8-byte Spill
	movabsq	$64, %rax
	movq	%rax, 17456(%rsp)       # 8-byte Spill
	leaq	.L.str654, %rax
	movq	%rax, 17448(%rsp)       # 8-byte Spill
	leaq	.L.str655, %rax
	movq	%rax, 17440(%rsp)       # 8-byte Spill
	leaq	25560(%rsp), %rax
	movq	%rax, 17432(%rsp)       # 8-byte Spill
	leaq	.L.str651, %rax
	movq	%rax, 17424(%rsp)       # 8-byte Spill
	leaq	.L.str652, %rax
	movq	%rax, 17416(%rsp)       # 8-byte Spill
	leaq	.L.str653, %rax
	movq	%rax, 17408(%rsp)       # 8-byte Spill
	movabsq	$27, %rax
	movq	%rax, 17400(%rsp)       # 8-byte Spill
	leaq	.L.str649, %rax
	movq	%rax, 17392(%rsp)       # 8-byte Spill
	leaq	.L.str650, %rax
	movq	%rax, 17384(%rsp)       # 8-byte Spill
	leaq	.L.str647, %rax
	movq	%rax, 17376(%rsp)       # 8-byte Spill
	leaq	.L.str648, %rax
	movq	%rax, 17368(%rsp)       # 8-byte Spill
	movabsq	$154, %rax
	movq	%rax, 17360(%rsp)       # 8-byte Spill
	leaq	.L.str644, %rax
	movq	%rax, 17352(%rsp)       # 8-byte Spill
	leaq	.L.str645, %rax
	movq	%rax, 17344(%rsp)       # 8-byte Spill
	leaq	.L.str646, %rax
	movq	%rax, 17336(%rsp)       # 8-byte Spill
	movabsq	$28, %rax
	movq	%rax, 17328(%rsp)       # 8-byte Spill
	leaq	.L.str642, %rax
	movq	%rax, 17320(%rsp)       # 8-byte Spill
	leaq	.L.str643, %rax
	movq	%rax, 17312(%rsp)       # 8-byte Spill
	leaq	.L.str640, %rax
	movq	%rax, 17304(%rsp)       # 8-byte Spill
	leaq	.L.str641, %rax
	movq	%rax, 17296(%rsp)       # 8-byte Spill
	leaq	.L.str637, %rax
	movq	%rax, 17288(%rsp)       # 8-byte Spill
	leaq	.L.str638, %rax
	movq	%rax, 17280(%rsp)       # 8-byte Spill
	leaq	.L.str639, %rax
	movq	%rax, 17272(%rsp)       # 8-byte Spill
	movabsq	$44, %rax
	movq	%rax, 17264(%rsp)       # 8-byte Spill
	leaq	.L.str635, %rax
	movq	%rax, 17256(%rsp)       # 8-byte Spill
	leaq	.L.str636, %rax
	movq	%rax, 17248(%rsp)       # 8-byte Spill
	movq	17568(%rsp), %rax       # 8-byte Reload
	movq	%rdi, 17240(%rsp)       # 8-byte Spill
	movq	%rax, %rdi
	movq	17456(%rsp), %rax       # 8-byte Reload
	movl	%esi, 17236(%rsp)       # 4-byte Spill
	movq	%rax, %rsi
	movq	17576(%rsp), %rax       # 8-byte Reload
	movq	%rdx, 17224(%rsp)       # 8-byte Spill
	movq	%rax, %rdx
	movq	%rcx, 17216(%rsp)       # 8-byte Spill
	movq	17256(%rsp), %rax       # 8-byte Reload
	movq	%r8, 17208(%rsp)        # 8-byte Spill
	movq	%rax, %r8
	movq	17224(%rsp), %rax       # 8-byte Reload
	movq	%r9, 17200(%rsp)        # 8-byte Spill
	movq	%rax, %r9
	movq	17248(%rsp), %rax       # 8-byte Reload
	movq	%rax, (%rsp)
	movq	%r15, 17192(%rsp)       # 8-byte Spill
	movq	%r14, 17184(%rsp)       # 8-byte Spill
	movq	%r12, 17176(%rsp)       # 8-byte Spill
	movq	%r13, 17168(%rsp)       # 8-byte Spill
	movq	%rbp, 17160(%rsp)       # 8-byte Spill
	movq	%rbx, 17152(%rsp)       # 8-byte Spill
	movq	%r10, 17144(%rsp)       # 8-byte Spill
	movq	%r11, 17136(%rsp)       # 8-byte Spill
	callq	trace_logger_log_int
	movq	17360(%rsp), %rdi       # 8-byte Reload
	movq	17288(%rsp), %rsi       # 8-byte Reload
	movq	17280(%rsp), %rdx       # 8-byte Reload
	movq	17272(%rsp), %rcx       # 8-byte Reload
	movq	17264(%rsp), %r8        # 8-byte Reload
	movl	17588(%rsp), %r9d       # 4-byte Reload
	movl	$1, (%rsp)
	callq	trace_logger_log0
	movq	17216(%rsp), %rdi       # 8-byte Reload
	movq	17456(%rsp), %rsi       # 8-byte Reload
	movq	17576(%rsp), %rdx       # 8-byte Reload
	movq	17216(%rsp), %rcx       # 8-byte Reload
	movq	17304(%rsp), %r8        # 8-byte Reload
	movq	17224(%rsp), %r9        # 8-byte Reload
	movq	17296(%rsp), %rax       # 8-byte Reload
	movq	%rax, (%rsp)
	callq	trace_logger_log_int
	movq	17576(%rsp), %rax       # 8-byte Reload
	movq	17568(%rsp), %rdi       # 8-byte Reload
	movq	17456(%rsp), %rsi       # 8-byte Reload
	movq	%rax, %rdx
	movq	17216(%rsp), %rcx       # 8-byte Reload
	movq	17320(%rsp), %r8        # 8-byte Reload
	movq	17224(%rsp), %r9        # 8-byte Reload
	movq	17312(%rsp), %r10       # 8-byte Reload
	movq	%r10, (%rsp)
	movq	%rax, 17128(%rsp)       # 8-byte Spill
	callq	trace_logger_log_int
	movq	17360(%rsp), %rdi       # 8-byte Reload
	movq	17352(%rsp), %rsi       # 8-byte Reload
	movq	17344(%rsp), %rdx       # 8-byte Reload
	movq	17336(%rsp), %rcx       # 8-byte Reload
	movq	17328(%rsp), %r8        # 8-byte Reload
	movl	17588(%rsp), %r9d       # 4-byte Reload
	movl	$1, (%rsp)
	callq	trace_logger_log0
	movq	17240(%rsp), %rdi       # 8-byte Reload
	movq	17456(%rsp), %rsi       # 8-byte Reload
	movq	17632(%rsp), %rdx       # 8-byte Reload
	movq	17216(%rsp), %rcx       # 8-byte Reload
	movq	17376(%rsp), %r8        # 8-byte Reload
	movq	17224(%rsp), %r9        # 8-byte Reload
	movq	17368(%rsp), %rax       # 8-byte Reload
	movq	%rax, (%rsp)
	callq	trace_logger_log_int
	movq	17216(%rsp), %rdi       # 8-byte Reload
	movq	17456(%rsp), %rsi       # 8-byte Reload
	movq	17128(%rsp), %rdx       # 8-byte Reload
	movq	17216(%rsp), %rcx       # 8-byte Reload
	movq	17392(%rsp), %r8        # 8-byte Reload
	movq	17224(%rsp), %r9        # 8-byte Reload
	movq	17384(%rsp), %rax       # 8-byte Reload
	movq	%rax, (%rsp)
	callq	trace_logger_log_int
	movq	18256(%rsp), %rax       # 8-byte Reload
	movq	17128(%rsp), %rcx       # 8-byte Reload
	movq	%rcx, (%rax)
.Ltmp110:
	#DEBUG_VALUE: main:i <- 1
	#DEBUG_VALUE: main:numObjects <- [RSP+17432]
	.loc	3 155 0                 # kmeans.c:155:0
	movq	17192(%rsp), %rdi       # 8-byte Reload
	movq	17424(%rsp), %rsi       # 8-byte Reload
	movq	17416(%rsp), %rdx       # 8-byte Reload
	movq	17408(%rsp), %rcx       # 8-byte Reload
	movq	17400(%rsp), %r8        # 8-byte Reload
	movl	17588(%rsp), %r9d       # 4-byte Reload
	movl	$1, (%rsp)
	callq	trace_logger_log0
	movq	17216(%rsp), %rdi       # 8-byte Reload
	movq	17456(%rsp), %rsi       # 8-byte Reload
	movq	17432(%rsp), %rdx       # 8-byte Reload
	movq	17216(%rsp), %rcx       # 8-byte Reload
	movq	17448(%rsp), %r8        # 8-byte Reload
	movq	17224(%rsp), %r9        # 8-byte Reload
	movq	17440(%rsp), %rax       # 8-byte Reload
	movq	%rax, (%rsp)
	callq	trace_logger_log_int
	movl	25560(%rsp), %esi
	movl	%esi, %edi
	movl	%edi, %edx
	movq	17568(%rsp), %rdi       # 8-byte Reload
	movq	17544(%rsp), %rax       # 8-byte Reload
	movl	%esi, 17124(%rsp)       # 4-byte Spill
	movq	%rax, %rsi
	movq	17216(%rsp), %rcx       # 8-byte Reload
	movq	17472(%rsp), %r8        # 8-byte Reload
	movq	17224(%rsp), %r9        # 8-byte Reload
	movq	17464(%rsp), %r10       # 8-byte Reload
	movq	%r10, (%rsp)
	callq	trace_logger_log_int
	movq	17192(%rsp), %rdi       # 8-byte Reload
	movq	17504(%rsp), %rsi       # 8-byte Reload
	movq	17496(%rsp), %rdx       # 8-byte Reload
	movq	17488(%rsp), %rcx       # 8-byte Reload
	movq	17480(%rsp), %r8        # 8-byte Reload
	movl	17588(%rsp), %r9d       # 4-byte Reload
	movl	$1, (%rsp)
	callq	trace_logger_log0
	movq	17240(%rsp), %rdi       # 8-byte Reload
	movq	17544(%rsp), %rsi       # 8-byte Reload
	movq	17216(%rsp), %rdx       # 8-byte Reload
	movq	17224(%rsp), %rcx       # 8-byte Reload
	movq	17520(%rsp), %r8        # 8-byte Reload
	movq	17224(%rsp), %r9        # 8-byte Reload
	movq	17512(%rsp), %rax       # 8-byte Reload
	movq	%rax, (%rsp)
	callq	trace_logger_log_int
	movl	17124(%rsp), %esi       # 4-byte Reload
	movl	%esi, %esi
	movl	%esi, %edx
	movq	17216(%rsp), %rdi       # 8-byte Reload
	movq	17544(%rsp), %rsi       # 8-byte Reload
	movq	17216(%rsp), %rcx       # 8-byte Reload
	movq	17536(%rsp), %r8        # 8-byte Reload
	movq	17224(%rsp), %r9        # 8-byte Reload
	movq	17528(%rsp), %rax       # 8-byte Reload
	movq	%rax, (%rsp)
	callq	trace_logger_log_int
	movl	17124(%rsp), %esi       # 4-byte Reload
	cmpl	$1, %esi
	setg	%al
	movb	%al, %cl
	andb	$1, %cl
	movzbl	%cl, %ecx
	movl	%ecx, %edx
	movq	17568(%rsp), %rdi       # 8-byte Reload
	movq	17216(%rsp), %rsi       # 8-byte Reload
	movq	17216(%rsp), %rcx       # 8-byte Reload
	movq	17560(%rsp), %r8        # 8-byte Reload
	movq	17224(%rsp), %r9        # 8-byte Reload
	movq	17552(%rsp), %r10       # 8-byte Reload
	movq	%r10, (%rsp)
	movb	%al, 17123(%rsp)        # 1-byte Spill
	callq	trace_logger_log_int
	movq	17192(%rsp), %rdi       # 8-byte Reload
	movq	17176(%rsp), %rsi       # 8-byte Reload
	movq	17168(%rsp), %rdx       # 8-byte Reload
	movq	17160(%rsp), %rcx       # 8-byte Reload
	movq	17240(%rsp), %r8        # 8-byte Reload
	movl	17588(%rsp), %r9d       # 4-byte Reload
	movl	$1, (%rsp)
	callq	trace_logger_log0
	movq	17136(%rsp), %rdi       # 8-byte Reload
	movq	17224(%rsp), %rsi       # 8-byte Reload
	movq	17224(%rsp), %rdx       # 8-byte Reload
	movq	17216(%rsp), %rcx       # 8-byte Reload
	movq	17152(%rsp), %r8        # 8-byte Reload
	movq	17224(%rsp), %r9        # 8-byte Reload
	movq	17184(%rsp), %r10       # 8-byte Reload
	movq	%r10, (%rsp)
	callq	trace_logger_log_int
	movq	17240(%rsp), %rdi       # 8-byte Reload
	movq	17224(%rsp), %rsi       # 8-byte Reload
	movq	17224(%rsp), %rdx       # 8-byte Reload
	movq	17216(%rsp), %rcx       # 8-byte Reload
	movq	17200(%rsp), %r8        # 8-byte Reload
	movq	17224(%rsp), %r9        # 8-byte Reload
	movq	17144(%rsp), %r10       # 8-byte Reload
	movq	%r10, (%rsp)
	callq	trace_logger_log_int
	movb	17123(%rsp), %al        # 1-byte Reload
	andb	$1, %al
	movzbl	%al, %eax
	movl	%eax, %edx
	movq	17216(%rsp), %rdi       # 8-byte Reload
	movq	17216(%rsp), %rsi       # 8-byte Reload
	movq	17216(%rsp), %rcx       # 8-byte Reload
	movq	17208(%rsp), %r8        # 8-byte Reload
	movq	17224(%rsp), %r9        # 8-byte Reload
	movq	17592(%rsp), %r10       # 8-byte Reload
	movq	%r10, (%rsp)
	callq	trace_logger_log_int
	movb	17123(%rsp), %al        # 1-byte Reload
	testb	$1, %al
	movl	17124(%rsp), %eax       # 4-byte Reload
	movl	%eax, 17116(%rsp)       # 4-byte Spill
	jne	.LBB2_16
	jmp	.LBB2_18
.Ltmp111:
.LBB2_16:                               # %.lr.ph16
	movabsq	$1, %rax
	movabsq	$0, %rcx
	leaq	.L.str700, %r8
	leaq	.L.str701, %rdx
	movabsq	$155, %rsi
	leaq	.L.str697, %rdi
	leaq	.L.str698, %r9
	leaq	.L.str699, %r10
	movabsq	$2, %r11
	movl	$0, %ebx
	movl	$1, %ebp
	movabsq	$19134, %r14            # imm = 0x4ABE
	movabsq	$32, %r15
	leaq	.L.str695, %r12
	leaq	.L.str696, %r13
	movq	%rax, 17104(%rsp)       # 8-byte Spill
	movabsq	$64, %rax
	movq	%rax, 17096(%rsp)       # 8-byte Spill
	leaq	.L.str693, %rax
	movq	%rax, 17088(%rsp)       # 8-byte Spill
	leaq	.L.str694, %rax
	movq	%rax, 17080(%rsp)       # 8-byte Spill
	leaq	25560(%rsp), %rax
	movq	%rax, 17072(%rsp)       # 8-byte Spill
	leaq	.L.str690, %rax
	movq	%rax, 17064(%rsp)       # 8-byte Spill
	leaq	.L.str691, %rax
	movq	%rax, 17056(%rsp)       # 8-byte Spill
	leaq	.L.str692, %rax
	movq	%rax, 17048(%rsp)       # 8-byte Spill
	movabsq	$27, %rax
	movq	%rax, 17040(%rsp)       # 8-byte Spill
	leaq	.L.str688, %rax
	movq	%rax, 17032(%rsp)       # 8-byte Spill
	leaq	.L.str689, %rax
	movq	%rax, 17024(%rsp)       # 8-byte Spill
	leaq	.L.str686, %rax
	movq	%rax, 17016(%rsp)       # 8-byte Spill
	leaq	.L.str687, %rax
	movq	%rax, 17008(%rsp)       # 8-byte Spill
	movabsq	$156, %rax
	movq	%rax, 17000(%rsp)       # 8-byte Spill
	leaq	.L.str683, %rax
	movq	%rax, 16992(%rsp)       # 8-byte Spill
	leaq	.L.str684, %rax
	movq	%rax, 16984(%rsp)       # 8-byte Spill
	leaq	.L.str685, %rax
	movq	%rax, 16976(%rsp)       # 8-byte Spill
	movabsq	$35, %rax
	movq	%rax, 16968(%rsp)       # 8-byte Spill
	leaq	.L.str681, %rax
	movq	%rax, 16960(%rsp)       # 8-byte Spill
	leaq	.L.str682, %rax
	movq	%rax, 16952(%rsp)       # 8-byte Spill
	leaq	.L.str679, %rax
	movq	%rax, 16944(%rsp)       # 8-byte Spill
	leaq	.L.str680, %rax
	movq	%rax, 16936(%rsp)       # 8-byte Spill
	leaq	25564(%rsp), %rax
	movq	%rax, 16928(%rsp)       # 8-byte Spill
	leaq	.L.str676, %rax
	movq	%rax, 16920(%rsp)       # 8-byte Spill
	leaq	.L.str677, %rax
	movq	%rax, 16912(%rsp)       # 8-byte Spill
	leaq	.L.str678, %rax
.Ltmp112:
	#DEBUG_VALUE: main:numAttributes <- [RSP+16928]
	.loc	3 156 0                 # kmeans.c:156:0
	movq	%rax, 16904(%rsp)       # 8-byte Spill
	movq	17000(%rsp), %rax       # 8-byte Reload
	movq	%rdi, 16896(%rsp)       # 8-byte Spill
	movq	%rax, %rdi
	movq	16920(%rsp), %rax       # 8-byte Reload
	movq	%rsi, 16888(%rsp)       # 8-byte Spill
	movq	%rax, %rsi
	movq	16912(%rsp), %rax       # 8-byte Reload
	movq	%rdx, 16880(%rsp)       # 8-byte Spill
	movq	%rax, %rdx
	movq	16904(%rsp), %rax       # 8-byte Reload
	movq	%rcx, 16872(%rsp)       # 8-byte Spill
	movq	%rax, %rcx
	movq	17040(%rsp), %rax       # 8-byte Reload
	movq	%r8, 16864(%rsp)        # 8-byte Spill
	movq	%rax, %r8
	movq	%r9, 16856(%rsp)        # 8-byte Spill
	movl	%ebx, %r9d
	movl	$1, (%rsp)
	movq	%r14, 16848(%rsp)       # 8-byte Spill
	movl	%ebp, 16844(%rsp)       # 4-byte Spill
	movq	%r15, 16832(%rsp)       # 8-byte Spill
	movq	%r12, 16824(%rsp)       # 8-byte Spill
	movq	%r13, 16816(%rsp)       # 8-byte Spill
	movl	%ebx, 16812(%rsp)       # 4-byte Spill
	movq	%r10, 16800(%rsp)       # 8-byte Spill
	movq	%r11, 16792(%rsp)       # 8-byte Spill
	callq	trace_logger_log0
	movq	17104(%rsp), %rdi       # 8-byte Reload
	movq	17096(%rsp), %rsi       # 8-byte Reload
	movq	16928(%rsp), %rdx       # 8-byte Reload
	movq	17104(%rsp), %rcx       # 8-byte Reload
	movq	16944(%rsp), %r8        # 8-byte Reload
	movq	16872(%rsp), %r9        # 8-byte Reload
	movq	16936(%rsp), %rax       # 8-byte Reload
	movq	%rax, (%rsp)
	callq	trace_logger_log_int
	movl	25564(%rsp), %ebx
	movl	%ebx, %ebp
	movl	%ebp, %edx
	movq	16848(%rsp), %rdi       # 8-byte Reload
	movq	16832(%rsp), %rsi       # 8-byte Reload
	movq	17104(%rsp), %rcx       # 8-byte Reload
	movq	16960(%rsp), %r8        # 8-byte Reload
	movq	16872(%rsp), %r9        # 8-byte Reload
	movq	16952(%rsp), %rax       # 8-byte Reload
	movq	%rax, (%rsp)
	movl	%ebx, 16788(%rsp)       # 4-byte Spill
	callq	trace_logger_log_int
	movq	17000(%rsp), %rdi       # 8-byte Reload
	movq	16992(%rsp), %rsi       # 8-byte Reload
	movq	16984(%rsp), %rdx       # 8-byte Reload
	movq	16976(%rsp), %rcx       # 8-byte Reload
	movq	16968(%rsp), %r8        # 8-byte Reload
	movl	16812(%rsp), %r9d       # 4-byte Reload
	movl	$1, (%rsp)
	callq	trace_logger_log0
	movl	16788(%rsp), %r9d       # 4-byte Reload
	movl	%r9d, %ebx
	movl	%ebx, %edx
	movq	17104(%rsp), %rdi       # 8-byte Reload
	movq	16832(%rsp), %rsi       # 8-byte Reload
	movq	17104(%rsp), %rcx       # 8-byte Reload
	movq	17016(%rsp), %r8        # 8-byte Reload
	movq	16872(%rsp), %r9        # 8-byte Reload
	movq	17008(%rsp), %rax       # 8-byte Reload
	movq	%rax, (%rsp)
	callq	trace_logger_log_int
	movl	16788(%rsp), %ebx       # 4-byte Reload
	movslq	%ebx, %rax
	.loc	3 155 0                 # kmeans.c:155:0
	movq	16848(%rsp), %rdi       # 8-byte Reload
	movq	17096(%rsp), %rsi       # 8-byte Reload
	movq	%rax, %rdx
	movq	17104(%rsp), %rcx       # 8-byte Reload
	movq	17032(%rsp), %r8        # 8-byte Reload
	movq	16872(%rsp), %r9        # 8-byte Reload
	movq	17024(%rsp), %r10       # 8-byte Reload
	movq	%r10, (%rsp)
	movq	%rax, 16776(%rsp)       # 8-byte Spill
	callq	trace_logger_log_int
.Ltmp113:
	#DEBUG_VALUE: main:numObjects <- [RSP+17072]
	movq	16888(%rsp), %rdi       # 8-byte Reload
	movq	17064(%rsp), %rsi       # 8-byte Reload
	movq	17056(%rsp), %rdx       # 8-byte Reload
	movq	17048(%rsp), %rcx       # 8-byte Reload
	movq	17040(%rsp), %r8        # 8-byte Reload
	movl	16812(%rsp), %r9d       # 4-byte Reload
	movl	$1, (%rsp)
	callq	trace_logger_log0
	movq	17104(%rsp), %rdi       # 8-byte Reload
	movq	17096(%rsp), %rsi       # 8-byte Reload
	movq	17072(%rsp), %rdx       # 8-byte Reload
	movq	17104(%rsp), %rcx       # 8-byte Reload
	movq	17088(%rsp), %r8        # 8-byte Reload
	movq	16872(%rsp), %r9        # 8-byte Reload
	movq	17080(%rsp), %rax       # 8-byte Reload
	movq	%rax, (%rsp)
	callq	trace_logger_log_int
	movl	25560(%rsp), %ebx
	movl	%ebx, %ebp
	movl	%ebp, %edx
	movq	16848(%rsp), %rdi       # 8-byte Reload
	movq	16832(%rsp), %rsi       # 8-byte Reload
	movq	17104(%rsp), %rcx       # 8-byte Reload
	movq	16824(%rsp), %r8        # 8-byte Reload
	movq	16872(%rsp), %r9        # 8-byte Reload
	movq	16816(%rsp), %rax       # 8-byte Reload
	movq	%rax, (%rsp)
	movl	%ebx, 16772(%rsp)       # 4-byte Spill
	callq	trace_logger_log_int
	movq	16888(%rsp), %rdi       # 8-byte Reload
	movq	16896(%rsp), %rsi       # 8-byte Reload
	movq	16856(%rsp), %rdx       # 8-byte Reload
	movq	16800(%rsp), %rcx       # 8-byte Reload
	movq	16792(%rsp), %r8        # 8-byte Reload
	movl	16812(%rsp), %r9d       # 4-byte Reload
	movl	$1, (%rsp)
	callq	trace_logger_log0
	movq	17104(%rsp), %rdi       # 8-byte Reload
	movq	16872(%rsp), %rsi       # 8-byte Reload
	movq	16872(%rsp), %rdx       # 8-byte Reload
	movq	17104(%rsp), %rcx       # 8-byte Reload
	movq	16864(%rsp), %r8        # 8-byte Reload
	movq	16872(%rsp), %r9        # 8-byte Reload
	movq	16880(%rsp), %rax       # 8-byte Reload
	movq	%rax, (%rsp)
	callq	trace_logger_log_int
	movq	17104(%rsp), %rax       # 8-byte Reload
	movq	%rax, 16760(%rsp)       # 8-byte Spill
.Ltmp114:
.LBB2_17:                               # =>This Inner Loop Header: Depth=1
	movq	16760(%rsp), %rax       # 8-byte Reload
	movabsq	$1, %rcx
	leaq	.L.str793, %r8
	movabsq	$0, %rdx
	leaq	.L.str794, %rsi
	movabsq	$2, %rdi
	leaq	.L.str791, %r9
	leaq	.L.str792, %r10
	movabsq	$3, %r11
	leaq	.L.str789, %rbx
	leaq	.L.str790, %r14
	movabsq	$155, %r15
	leaq	.L.str786, %r12
	leaq	.L.str787, %r13
	leaq	.L.str788, %rbp
	movq	%rsi, 16752(%rsp)       # 8-byte Spill
	movl	$0, %esi
	movl	%esi, 16748(%rsp)       # 4-byte Spill
	movl	$1, %esi
	movq	%rax, 16736(%rsp)       # 8-byte Spill
	movabsq	$19134, %rax            # imm = 0x4ABE
	movq	%rax, 16728(%rsp)       # 8-byte Spill
	leaq	.L.str784, %rax
	movq	%rax, 16720(%rsp)       # 8-byte Spill
	leaq	.L.str785, %rax
	movq	%rax, 16712(%rsp)       # 8-byte Spill
	movabsq	$32, %rax
	movq	%rax, 16704(%rsp)       # 8-byte Spill
	leaq	.L.str782, %rax
	movq	%rax, 16696(%rsp)       # 8-byte Spill
	leaq	.L.str783, %rax
	movq	%rax, 16688(%rsp)       # 8-byte Spill
	leaq	.L.str780, %rax
	movq	%rax, 16680(%rsp)       # 8-byte Spill
	leaq	.L.str781, %rax
	movq	%rax, 16672(%rsp)       # 8-byte Spill
	leaq	.L.str777, %rax
	movq	%rax, 16664(%rsp)       # 8-byte Spill
	leaq	.L.str778, %rax
	movq	%rax, 16656(%rsp)       # 8-byte Spill
	leaq	.L.str779, %rax
	movq	%rax, 16648(%rsp)       # 8-byte Spill
	movabsq	$46, %rax
	movq	%rax, 16640(%rsp)       # 8-byte Spill
	leaq	.L.str775, %rax
	movq	%rax, 16632(%rsp)       # 8-byte Spill
	leaq	.L.str776, %rax
	movq	%rax, 16624(%rsp)       # 8-byte Spill
	movabsq	$64, %rax
	movq	%rax, 16616(%rsp)       # 8-byte Spill
	leaq	.L.str773, %rax
	movq	%rax, 16608(%rsp)       # 8-byte Spill
	leaq	.L.str774, %rax
	movq	%rax, 16600(%rsp)       # 8-byte Spill
	leaq	.L.str770, %rax
	movq	%rax, 16592(%rsp)       # 8-byte Spill
	leaq	.L.str771, %rax
	movq	%rax, 16584(%rsp)       # 8-byte Spill
	leaq	.L.str772, %rax
	movq	%rax, 16576(%rsp)       # 8-byte Spill
	movabsq	$33, %rax
	movq	%rax, 16568(%rsp)       # 8-byte Spill
	leaq	.L.str768, %rax
	movq	%rax, 16560(%rsp)       # 8-byte Spill
	leaq	.L.str769, %rax
	movq	%rax, 16552(%rsp)       # 8-byte Spill
	leaq	.L.str766, %rax
	movq	%rax, 16544(%rsp)       # 8-byte Spill
	leaq	.L.str767, %rax
	movq	%rax, 16536(%rsp)       # 8-byte Spill
	leaq	.L.str764, %rax
	movq	%rax, 16528(%rsp)       # 8-byte Spill
	leaq	.L.str765, %rax
	movq	%rax, 16520(%rsp)       # 8-byte Spill
	leaq	.L.str761, %rax
	movq	%rax, 16512(%rsp)       # 8-byte Spill
	leaq	.L.str762, %rax
	movq	%rax, 16504(%rsp)       # 8-byte Spill
	leaq	.L.str763, %rax
	movq	%rax, 16496(%rsp)       # 8-byte Spill
	movabsq	$8, %rax
	movq	%rax, 16488(%rsp)       # 8-byte Spill
	leaq	.L.str759, %rax
	movq	%rax, 16480(%rsp)       # 8-byte Spill
	leaq	.L.str760, %rax
	movq	%rax, 16472(%rsp)       # 8-byte Spill
	leaq	.L.str757, %rax
	movq	%rax, 16464(%rsp)       # 8-byte Spill
	leaq	.L.str758, %rax
	movq	%rax, 16456(%rsp)       # 8-byte Spill
	movabsq	$156, %rax
	movq	%rax, 16448(%rsp)       # 8-byte Spill
	leaq	.L.str754, %rax
	movq	%rax, 16440(%rsp)       # 8-byte Spill
	leaq	.L.str755, %rax
	movq	%rax, 16432(%rsp)       # 8-byte Spill
	leaq	.L.str756, %rax
	movq	%rax, 16424(%rsp)       # 8-byte Spill
	movabsq	$28, %rax
	movq	%rax, 16416(%rsp)       # 8-byte Spill
	leaq	.L.str752, %rax
	movq	%rax, 16408(%rsp)       # 8-byte Spill
	leaq	.L.str753, %rax
	movq	%rax, 16400(%rsp)       # 8-byte Spill
	leaq	.L.str750, %rax
	movq	%rax, 16392(%rsp)       # 8-byte Spill
	leaq	.L.str751, %rax
	movq	%rax, 16384(%rsp)       # 8-byte Spill
	leaq	.L.str748, %rax
	movq	%rax, 16376(%rsp)       # 8-byte Spill
	leaq	.L.str749, %rax
	movq	%rax, 16368(%rsp)       # 8-byte Spill
	leaq	.L.str745, %rax
	movq	%rax, 16360(%rsp)       # 8-byte Spill
	leaq	.L.str746, %rax
	movq	%rax, 16352(%rsp)       # 8-byte Spill
	leaq	.L.str747, %rax
	movq	%rax, 16344(%rsp)       # 8-byte Spill
	movabsq	$29, %rax
	movq	%rax, 16336(%rsp)       # 8-byte Spill
	leaq	.L.str743, %rax
	movq	%rax, 16328(%rsp)       # 8-byte Spill
	leaq	.L.str744, %rax
	movq	%rax, 16320(%rsp)       # 8-byte Spill
	leaq	.L.str741, %rax
	movq	%rax, 16312(%rsp)       # 8-byte Spill
	leaq	.L.str742, %rax
	movq	%rax, 16304(%rsp)       # 8-byte Spill
	leaq	.L.str739, %rax
	movq	%rax, 16296(%rsp)       # 8-byte Spill
	leaq	.L.str740, %rax
	movq	%rax, 16288(%rsp)       # 8-byte Spill
	leaq	.L.str736, %rax
	movq	%rax, 16280(%rsp)       # 8-byte Spill
	leaq	.L.str737, %rax
	movq	%rax, 16272(%rsp)       # 8-byte Spill
	leaq	.L.str738, %rax
	movq	%rax, 16264(%rsp)       # 8-byte Spill
	leaq	.L.str734, %rax
	movq	%rax, 16256(%rsp)       # 8-byte Spill
	leaq	.L.str735, %rax
	movq	%rax, 16248(%rsp)       # 8-byte Spill
	leaq	.L.str732, %rax
	movq	%rax, 16240(%rsp)       # 8-byte Spill
	leaq	.L.str733, %rax
	movq	%rax, 16232(%rsp)       # 8-byte Spill
	leaq	.L.str729, %rax
	movq	%rax, 16224(%rsp)       # 8-byte Spill
	leaq	.L.str730, %rax
	movq	%rax, 16216(%rsp)       # 8-byte Spill
	leaq	.L.str731, %rax
	movq	%rax, 16208(%rsp)       # 8-byte Spill
	movabsq	$27, %rax
	movq	%rax, 16200(%rsp)       # 8-byte Spill
	leaq	.L.str727, %rax
	movq	%rax, 16192(%rsp)       # 8-byte Spill
	leaq	.L.str728, %rax
	movq	%rax, 16184(%rsp)       # 8-byte Spill
	leaq	.L.str725, %rax
	movq	%rax, 16176(%rsp)       # 8-byte Spill
	leaq	.L.str726, %rax
	movq	%rax, 16168(%rsp)       # 8-byte Spill
	leaq	.L.str723, %rax
	movq	%rax, 16160(%rsp)       # 8-byte Spill
	leaq	.L.str724, %rax
	movq	%rax, 16152(%rsp)       # 8-byte Spill
	leaq	.L.str720, %rax
	movq	%rax, 16144(%rsp)       # 8-byte Spill
	leaq	.L.str721, %rax
	movq	%rax, 16136(%rsp)       # 8-byte Spill
	leaq	.L.str722, %rax
	movq	%rax, 16128(%rsp)       # 8-byte Spill
	leaq	.L.str718, %rax
	movq	%rax, 16120(%rsp)       # 8-byte Spill
	leaq	.L.str719, %rax
	movq	%rax, 16112(%rsp)       # 8-byte Spill
	leaq	.L.str716, %rax
	movq	%rax, 16104(%rsp)       # 8-byte Spill
	leaq	.L.str717, %rax
	movq	%rax, 16096(%rsp)       # 8-byte Spill
	movabsq	$-1, %rax
	movq	%rax, 16088(%rsp)       # 8-byte Spill
	leaq	.L.str714, %rax
	movq	%rax, 16080(%rsp)       # 8-byte Spill
	leaq	.L.str715, %rax
	movq	%rax, 16072(%rsp)       # 8-byte Spill
	leaq	.L.str711, %rax
	movq	%rax, 16064(%rsp)       # 8-byte Spill
	leaq	.L.str712, %rax
	movq	%rax, 16056(%rsp)       # 8-byte Spill
	leaq	.L.str713, %rax
	movq	%rax, 16048(%rsp)       # 8-byte Spill
	leaq	.L.str709, %rax
	movq	%rax, 16040(%rsp)       # 8-byte Spill
	leaq	.L.str710, %rax
	movq	%rax, 16032(%rsp)       # 8-byte Spill
	leaq	.L.str707, %rax
	movq	%rax, 16024(%rsp)       # 8-byte Spill
	leaq	.L.str708, %rax
	movq	%rax, 16016(%rsp)       # 8-byte Spill
	leaq	.L.str705, %rax
	movq	%rax, 16008(%rsp)       # 8-byte Spill
	leaq	.L.str706, %rax
	movq	%rax, 16000(%rsp)       # 8-byte Spill
	leaq	.L.str702, %rax
	movq	%rax, 15992(%rsp)       # 8-byte Spill
	leaq	.L.str703, %rax
	movq	%rax, 15984(%rsp)       # 8-byte Spill
	leaq	.L.str704, %rax
	movq	%rax, 15976(%rsp)       # 8-byte Spill
	movabsq	$48, %rax
	.loc	3 156 0                 # kmeans.c:156:0
	movq	%rax, 15968(%rsp)       # 8-byte Spill
	movq	16088(%rsp), %rax       # 8-byte Reload
	movq	%rdi, 15960(%rsp)       # 8-byte Spill
	movq	%rax, %rdi
	movq	15992(%rsp), %rax       # 8-byte Reload
	movl	%esi, 15956(%rsp)       # 4-byte Spill
	movq	%rax, %rsi
	movq	15984(%rsp), %rax       # 8-byte Reload
	movq	%rdx, 15944(%rsp)       # 8-byte Spill
	movq	%rax, %rdx
	movq	15976(%rsp), %rax       # 8-byte Reload
	movq	%rcx, 15936(%rsp)       # 8-byte Spill
	movq	%rax, %rcx
	movq	15968(%rsp), %rax       # 8-byte Reload
	movq	%r8, 15928(%rsp)        # 8-byte Spill
	movq	%rax, %r8
	movl	16748(%rsp), %eax       # 4-byte Reload
	movq	%r9, 15920(%rsp)        # 8-byte Spill
	movl	%eax, %r9d
	movl	$1, (%rsp)
	movq	%r15, 15912(%rsp)       # 8-byte Spill
	movq	%r14, 15904(%rsp)       # 8-byte Spill
	movq	%r12, 15896(%rsp)       # 8-byte Spill
	movq	%r13, 15888(%rsp)       # 8-byte Spill
	movq	%rbp, 15880(%rsp)       # 8-byte Spill
	movq	%rbx, 15872(%rsp)       # 8-byte Spill
	movq	%r10, 15864(%rsp)       # 8-byte Spill
	movq	%r11, 15856(%rsp)       # 8-byte Spill
	callq	trace_logger_log0
	movq	15960(%rsp), %rdi       # 8-byte Reload
	movq	16616(%rsp), %rsi       # 8-byte Reload
	movq	15944(%rsp), %rdx       # 8-byte Reload
	movq	15936(%rsp), %rcx       # 8-byte Reload
	movq	16008(%rsp), %r8        # 8-byte Reload
	movq	15936(%rsp), %r9        # 8-byte Reload
	movq	16000(%rsp), %r10       # 8-byte Reload
	movq	%r10, (%rsp)
	callq	trace_logger_log_int
	movq	15936(%rsp), %rdi       # 8-byte Reload
	movq	16616(%rsp), %rsi       # 8-byte Reload
	movq	15936(%rsp), %rdx       # 8-byte Reload
	movq	15944(%rsp), %rcx       # 8-byte Reload
	movq	16024(%rsp), %r8        # 8-byte Reload
	movq	15936(%rsp), %r9        # 8-byte Reload
	movq	16016(%rsp), %r10       # 8-byte Reload
	movq	%r10, (%rsp)
	callq	trace_logger_log_int
	movq	16728(%rsp), %rdi       # 8-byte Reload
	movq	16616(%rsp), %rsi       # 8-byte Reload
	movq	16736(%rsp), %rdx       # 8-byte Reload
	movq	15936(%rsp), %rcx       # 8-byte Reload
	movq	16040(%rsp), %r8        # 8-byte Reload
	movq	15944(%rsp), %r9        # 8-byte Reload
	movq	16032(%rsp), %r10       # 8-byte Reload
	movq	%r10, (%rsp)
	callq	trace_logger_log_int
	movq	16448(%rsp), %rdi       # 8-byte Reload
	movq	16064(%rsp), %rsi       # 8-byte Reload
	movq	16056(%rsp), %rdx       # 8-byte Reload
	movq	16048(%rsp), %rcx       # 8-byte Reload
	movq	16488(%rsp), %r8        # 8-byte Reload
	movl	16748(%rsp), %r9d       # 4-byte Reload
	movl	$1, (%rsp)
	callq	trace_logger_log0
	movq	15960(%rsp), %rdi       # 8-byte Reload
	movq	16616(%rsp), %rsi       # 8-byte Reload
	movq	16088(%rsp), %rdx       # 8-byte Reload
	movq	15944(%rsp), %rcx       # 8-byte Reload
	movq	16080(%rsp), %r8        # 8-byte Reload
	movq	15944(%rsp), %r9        # 8-byte Reload
	movq	16072(%rsp), %r10       # 8-byte Reload
	movq	%r10, (%rsp)
	callq	trace_logger_log_int
	movq	15936(%rsp), %rdi       # 8-byte Reload
